ARM GAS  C:\Users\z004e6he\AppData\Local\Temp\ccx6P8oF.s 			page 1


   1              		.syntax unified
   2              		.cpu cortex-m3
   3              		.fpu softvfp
   4              		.eabi_attribute 20, 1
   5              		.eabi_attribute 21, 1
   6              		.eabi_attribute 23, 3
   7              		.eabi_attribute 24, 1
   8              		.eabi_attribute 25, 1
   9              		.eabi_attribute 26, 1
  10              		.eabi_attribute 30, 6
  11              		.eabi_attribute 34, 1
  12              		.eabi_attribute 18, 4
  13              		.thumb
  14              		.syntax unified
  15              		.file	"SPIM_1.c"
  16              		.text
  17              	.Ltext0:
  18              		.cfi_sections	.debug_frame
  19              		.global	SPIM_1_initVar
  20              		.bss
  21              		.type	SPIM_1_initVar, %object
  22              		.size	SPIM_1_initVar, 1
  23              	SPIM_1_initVar:
  24 0000 00       		.space	1
  25              		.comm	SPIM_1_swStatusTx,1,1
  26              		.comm	SPIM_1_swStatusRx,1,1
  27              		.section	.text.SPIM_1_Init,"ax",%progbits
  28              		.align	2
  29              		.global	SPIM_1_Init
  30              		.thumb
  31              		.thumb_func
  32              		.type	SPIM_1_Init, %function
  33              	SPIM_1_Init:
  34              	.LFB0:
  35              		.file 1 "Generated_Source\\PSoC5\\SPIM_1.c"
   1:Generated_Source\PSoC5/SPIM_1.c **** /*******************************************************************************
   2:Generated_Source\PSoC5/SPIM_1.c **** * File Name: SPIM_1.c
   3:Generated_Source\PSoC5/SPIM_1.c **** * Version 2.50
   4:Generated_Source\PSoC5/SPIM_1.c **** *
   5:Generated_Source\PSoC5/SPIM_1.c **** * Description:
   6:Generated_Source\PSoC5/SPIM_1.c **** *  This file provides all API functionality of the SPI Master component.
   7:Generated_Source\PSoC5/SPIM_1.c **** *
   8:Generated_Source\PSoC5/SPIM_1.c **** * Note:
   9:Generated_Source\PSoC5/SPIM_1.c **** *  None.
  10:Generated_Source\PSoC5/SPIM_1.c **** *
  11:Generated_Source\PSoC5/SPIM_1.c **** ********************************************************************************
  12:Generated_Source\PSoC5/SPIM_1.c **** * Copyright 2008-2015, Cypress Semiconductor Corporation.  All rights reserved.
  13:Generated_Source\PSoC5/SPIM_1.c **** * You may use this file only in accordance with the license, terms, conditions,
  14:Generated_Source\PSoC5/SPIM_1.c **** * disclaimers, and limitations in the end user license agreement accompanying
  15:Generated_Source\PSoC5/SPIM_1.c **** * the software package with which this file was provided.
  16:Generated_Source\PSoC5/SPIM_1.c **** *******************************************************************************/
  17:Generated_Source\PSoC5/SPIM_1.c **** 
  18:Generated_Source\PSoC5/SPIM_1.c **** #include "SPIM_1_PVT.h"
  19:Generated_Source\PSoC5/SPIM_1.c **** 
  20:Generated_Source\PSoC5/SPIM_1.c **** #if(SPIM_1_TX_SOFTWARE_BUF_ENABLED)
  21:Generated_Source\PSoC5/SPIM_1.c ****     volatile uint16 SPIM_1_txBuffer[SPIM_1_TX_BUFFER_SIZE];
  22:Generated_Source\PSoC5/SPIM_1.c ****     volatile uint8 SPIM_1_txBufferFull;
ARM GAS  C:\Users\z004e6he\AppData\Local\Temp\ccx6P8oF.s 			page 2


  23:Generated_Source\PSoC5/SPIM_1.c ****     volatile uint8 SPIM_1_txBufferRead;
  24:Generated_Source\PSoC5/SPIM_1.c ****     volatile uint8 SPIM_1_txBufferWrite;
  25:Generated_Source\PSoC5/SPIM_1.c **** #endif /* (SPIM_1_TX_SOFTWARE_BUF_ENABLED) */
  26:Generated_Source\PSoC5/SPIM_1.c **** 
  27:Generated_Source\PSoC5/SPIM_1.c **** #if(SPIM_1_RX_SOFTWARE_BUF_ENABLED)
  28:Generated_Source\PSoC5/SPIM_1.c ****     volatile uint16 SPIM_1_rxBuffer[SPIM_1_RX_BUFFER_SIZE];
  29:Generated_Source\PSoC5/SPIM_1.c ****     volatile uint8 SPIM_1_rxBufferFull;
  30:Generated_Source\PSoC5/SPIM_1.c ****     volatile uint8 SPIM_1_rxBufferRead;
  31:Generated_Source\PSoC5/SPIM_1.c ****     volatile uint8 SPIM_1_rxBufferWrite;
  32:Generated_Source\PSoC5/SPIM_1.c **** #endif /* (SPIM_1_RX_SOFTWARE_BUF_ENABLED) */
  33:Generated_Source\PSoC5/SPIM_1.c **** 
  34:Generated_Source\PSoC5/SPIM_1.c **** uint8 SPIM_1_initVar = 0u;
  35:Generated_Source\PSoC5/SPIM_1.c **** 
  36:Generated_Source\PSoC5/SPIM_1.c **** volatile uint8 SPIM_1_swStatusTx;
  37:Generated_Source\PSoC5/SPIM_1.c **** volatile uint8 SPIM_1_swStatusRx;
  38:Generated_Source\PSoC5/SPIM_1.c **** 
  39:Generated_Source\PSoC5/SPIM_1.c **** 
  40:Generated_Source\PSoC5/SPIM_1.c **** /*******************************************************************************
  41:Generated_Source\PSoC5/SPIM_1.c **** * Function Name: SPIM_1_Init
  42:Generated_Source\PSoC5/SPIM_1.c **** ********************************************************************************
  43:Generated_Source\PSoC5/SPIM_1.c **** *
  44:Generated_Source\PSoC5/SPIM_1.c **** * Summary:
  45:Generated_Source\PSoC5/SPIM_1.c **** *  Inits/Restores default SPIM configuration provided with customizer.
  46:Generated_Source\PSoC5/SPIM_1.c **** *
  47:Generated_Source\PSoC5/SPIM_1.c **** * Parameters:
  48:Generated_Source\PSoC5/SPIM_1.c **** *  None.
  49:Generated_Source\PSoC5/SPIM_1.c **** *
  50:Generated_Source\PSoC5/SPIM_1.c **** * Return:
  51:Generated_Source\PSoC5/SPIM_1.c **** *  None.
  52:Generated_Source\PSoC5/SPIM_1.c **** *
  53:Generated_Source\PSoC5/SPIM_1.c **** * Side Effects:
  54:Generated_Source\PSoC5/SPIM_1.c **** *  When this function is called it initializes all of the necessary parameters
  55:Generated_Source\PSoC5/SPIM_1.c **** *  for execution. i.e. setting the initial interrupt mask, configuring the
  56:Generated_Source\PSoC5/SPIM_1.c **** *  interrupt service routine, configuring the bit-counter parameters and
  57:Generated_Source\PSoC5/SPIM_1.c **** *  clearing the FIFO and Status Register.
  58:Generated_Source\PSoC5/SPIM_1.c **** *
  59:Generated_Source\PSoC5/SPIM_1.c **** * Reentrant:
  60:Generated_Source\PSoC5/SPIM_1.c **** *  No.
  61:Generated_Source\PSoC5/SPIM_1.c **** *
  62:Generated_Source\PSoC5/SPIM_1.c **** *******************************************************************************/
  63:Generated_Source\PSoC5/SPIM_1.c **** void SPIM_1_Init(void) 
  64:Generated_Source\PSoC5/SPIM_1.c **** {
  36              		.loc 1 64 0
  37              		.cfi_startproc
  38              		@ args = 0, pretend = 0, frame = 0
  39              		@ frame_needed = 1, uses_anonymous_args = 0
  40 0000 80B5     		push	{r7, lr}
  41              		.cfi_def_cfa_offset 8
  42              		.cfi_offset 7, -8
  43              		.cfi_offset 14, -4
  44 0002 00AF     		add	r7, sp, #0
  45              		.cfi_def_cfa_register 7
  65:Generated_Source\PSoC5/SPIM_1.c ****     /* Initialize the Bit counter */
  66:Generated_Source\PSoC5/SPIM_1.c ****     SPIM_1_COUNTER_PERIOD_REG = SPIM_1_BITCTR_INIT;
  46              		.loc 1 66 0
  47 0004 0D4B     		ldr	r3, .L2
  48 0006 1D22     		movs	r2, #29
ARM GAS  C:\Users\z004e6he\AppData\Local\Temp\ccx6P8oF.s 			page 3


  49 0008 1A70     		strb	r2, [r3]
  67:Generated_Source\PSoC5/SPIM_1.c **** 
  68:Generated_Source\PSoC5/SPIM_1.c ****     /* Init TX ISR  */
  69:Generated_Source\PSoC5/SPIM_1.c ****     #if(0u != SPIM_1_INTERNAL_TX_INT_ENABLED)
  70:Generated_Source\PSoC5/SPIM_1.c ****         CyIntDisable         (SPIM_1_TX_ISR_NUMBER);
  50              		.loc 1 70 0
  51 000a 0D4B     		ldr	r3, .L2+4
  52 000c 0222     		movs	r2, #2
  53 000e 1A60     		str	r2, [r3]
  71:Generated_Source\PSoC5/SPIM_1.c ****         CyIntSetPriority     (SPIM_1_TX_ISR_NUMBER,  SPIM_1_TX_ISR_PRIORITY);
  54              		.loc 1 71 0
  55 0010 0721     		movs	r1, #7
  56 0012 0120     		movs	r0, #1
  57 0014 FFF7FEFF 		bl	CyIntSetPriority
  72:Generated_Source\PSoC5/SPIM_1.c ****         (void) CyIntSetVector(SPIM_1_TX_ISR_NUMBER, &SPIM_1_TX_ISR);
  58              		.loc 1 72 0
  59 0018 0A49     		ldr	r1, .L2+8
  60 001a 0120     		movs	r0, #1
  61 001c FFF7FEFF 		bl	CyIntSetVector
  73:Generated_Source\PSoC5/SPIM_1.c ****     #endif /* (0u != SPIM_1_INTERNAL_TX_INT_ENABLED) */
  74:Generated_Source\PSoC5/SPIM_1.c **** 
  75:Generated_Source\PSoC5/SPIM_1.c ****     /* Init RX ISR  */
  76:Generated_Source\PSoC5/SPIM_1.c ****     #if(0u != SPIM_1_INTERNAL_RX_INT_ENABLED)
  77:Generated_Source\PSoC5/SPIM_1.c ****         CyIntDisable         (SPIM_1_RX_ISR_NUMBER);
  78:Generated_Source\PSoC5/SPIM_1.c ****         CyIntSetPriority     (SPIM_1_RX_ISR_NUMBER,  SPIM_1_RX_ISR_PRIORITY);
  79:Generated_Source\PSoC5/SPIM_1.c ****         (void) CyIntSetVector(SPIM_1_RX_ISR_NUMBER, &SPIM_1_RX_ISR);
  80:Generated_Source\PSoC5/SPIM_1.c ****     #endif /* (0u != SPIM_1_INTERNAL_RX_INT_ENABLED) */
  81:Generated_Source\PSoC5/SPIM_1.c **** 
  82:Generated_Source\PSoC5/SPIM_1.c ****     /* Clear any stray data from the RX and TX FIFO */
  83:Generated_Source\PSoC5/SPIM_1.c ****     SPIM_1_ClearFIFO();
  62              		.loc 1 83 0
  63 0020 FFF7FEFF 		bl	SPIM_1_ClearFIFO
  84:Generated_Source\PSoC5/SPIM_1.c **** 
  85:Generated_Source\PSoC5/SPIM_1.c ****     #if(SPIM_1_RX_SOFTWARE_BUF_ENABLED)
  86:Generated_Source\PSoC5/SPIM_1.c ****         SPIM_1_rxBufferFull  = 0u;
  87:Generated_Source\PSoC5/SPIM_1.c ****         SPIM_1_rxBufferRead  = 0u;
  88:Generated_Source\PSoC5/SPIM_1.c ****         SPIM_1_rxBufferWrite = 0u;
  89:Generated_Source\PSoC5/SPIM_1.c ****     #endif /* (SPIM_1_RX_SOFTWARE_BUF_ENABLED) */
  90:Generated_Source\PSoC5/SPIM_1.c **** 
  91:Generated_Source\PSoC5/SPIM_1.c ****     #if(SPIM_1_TX_SOFTWARE_BUF_ENABLED)
  92:Generated_Source\PSoC5/SPIM_1.c ****         SPIM_1_txBufferFull  = 0u;
  93:Generated_Source\PSoC5/SPIM_1.c ****         SPIM_1_txBufferRead  = 0u;
  94:Generated_Source\PSoC5/SPIM_1.c ****         SPIM_1_txBufferWrite = 0u;
  95:Generated_Source\PSoC5/SPIM_1.c ****     #endif /* (SPIM_1_TX_SOFTWARE_BUF_ENABLED) */
  96:Generated_Source\PSoC5/SPIM_1.c **** 
  97:Generated_Source\PSoC5/SPIM_1.c ****     (void) SPIM_1_ReadTxStatus(); /* Clear Tx status and swStatusTx */
  64              		.loc 1 97 0
  65 0024 FFF7FEFF 		bl	SPIM_1_ReadTxStatus
  98:Generated_Source\PSoC5/SPIM_1.c ****     (void) SPIM_1_ReadRxStatus(); /* Clear Rx status and swStatusRx */
  66              		.loc 1 98 0
  67 0028 FFF7FEFF 		bl	SPIM_1_ReadRxStatus
  99:Generated_Source\PSoC5/SPIM_1.c **** 
 100:Generated_Source\PSoC5/SPIM_1.c ****     /* Configure TX and RX interrupt mask */
 101:Generated_Source\PSoC5/SPIM_1.c ****     SPIM_1_TX_STATUS_MASK_REG = SPIM_1_TX_INIT_INTERRUPTS_MASK;
  68              		.loc 1 101 0
  69 002c 064B     		ldr	r3, .L2+12
  70 002e 0822     		movs	r2, #8
ARM GAS  C:\Users\z004e6he\AppData\Local\Temp\ccx6P8oF.s 			page 4


  71 0030 1A70     		strb	r2, [r3]
 102:Generated_Source\PSoC5/SPIM_1.c ****     SPIM_1_RX_STATUS_MASK_REG = SPIM_1_RX_INIT_INTERRUPTS_MASK;
  72              		.loc 1 102 0
  73 0032 064B     		ldr	r3, .L2+16
  74 0034 0022     		movs	r2, #0
  75 0036 1A70     		strb	r2, [r3]
 103:Generated_Source\PSoC5/SPIM_1.c **** }
  76              		.loc 1 103 0
  77 0038 00BF     		nop
  78 003a 80BD     		pop	{r7, pc}
  79              	.L3:
  80              		.align	2
  81              	.L2:
  82 003c 87640040 		.word	1073767559
  83 0040 80E100E0 		.word	-536813184
  84 0044 00000000 		.word	SPIM_1_TX_ISR
  85 0048 88650040 		.word	1073767816
  86 004c 89650040 		.word	1073767817
  87              		.cfi_endproc
  88              	.LFE0:
  89              		.size	SPIM_1_Init, .-SPIM_1_Init
  90              		.section	.text.SPIM_1_Enable,"ax",%progbits
  91              		.align	2
  92              		.global	SPIM_1_Enable
  93              		.thumb
  94              		.thumb_func
  95              		.type	SPIM_1_Enable, %function
  96              	SPIM_1_Enable:
  97              	.LFB1:
 104:Generated_Source\PSoC5/SPIM_1.c **** 
 105:Generated_Source\PSoC5/SPIM_1.c **** 
 106:Generated_Source\PSoC5/SPIM_1.c **** /*******************************************************************************
 107:Generated_Source\PSoC5/SPIM_1.c **** * Function Name: SPIM_1_Enable
 108:Generated_Source\PSoC5/SPIM_1.c **** ********************************************************************************
 109:Generated_Source\PSoC5/SPIM_1.c **** *
 110:Generated_Source\PSoC5/SPIM_1.c **** * Summary:
 111:Generated_Source\PSoC5/SPIM_1.c **** *  Enable SPIM component.
 112:Generated_Source\PSoC5/SPIM_1.c **** *
 113:Generated_Source\PSoC5/SPIM_1.c **** * Parameters:
 114:Generated_Source\PSoC5/SPIM_1.c **** *  None.
 115:Generated_Source\PSoC5/SPIM_1.c **** *
 116:Generated_Source\PSoC5/SPIM_1.c **** * Return:
 117:Generated_Source\PSoC5/SPIM_1.c **** *  None.
 118:Generated_Source\PSoC5/SPIM_1.c **** *
 119:Generated_Source\PSoC5/SPIM_1.c **** *******************************************************************************/
 120:Generated_Source\PSoC5/SPIM_1.c **** void SPIM_1_Enable(void) 
 121:Generated_Source\PSoC5/SPIM_1.c **** {
  98              		.loc 1 121 0
  99              		.cfi_startproc
 100              		@ args = 0, pretend = 0, frame = 8
 101              		@ frame_needed = 1, uses_anonymous_args = 0
 102 0000 80B5     		push	{r7, lr}
 103              		.cfi_def_cfa_offset 8
 104              		.cfi_offset 7, -8
 105              		.cfi_offset 14, -4
 106 0002 82B0     		sub	sp, sp, #8
 107              		.cfi_def_cfa_offset 16
ARM GAS  C:\Users\z004e6he\AppData\Local\Temp\ccx6P8oF.s 			page 5


 108 0004 00AF     		add	r7, sp, #0
 109              		.cfi_def_cfa_register 7
 122:Generated_Source\PSoC5/SPIM_1.c ****     uint8 enableInterrupts;
 123:Generated_Source\PSoC5/SPIM_1.c **** 
 124:Generated_Source\PSoC5/SPIM_1.c ****     enableInterrupts = CyEnterCriticalSection();
 110              		.loc 1 124 0
 111 0006 FFF7FEFF 		bl	CyEnterCriticalSection
 112 000a 0346     		mov	r3, r0
 113 000c FB71     		strb	r3, [r7, #7]
 125:Generated_Source\PSoC5/SPIM_1.c ****     SPIM_1_COUNTER_CONTROL_REG |= SPIM_1_CNTR_ENABLE;
 114              		.loc 1 125 0
 115 000e 134A     		ldr	r2, .L5
 116 0010 124B     		ldr	r3, .L5
 117 0012 1B78     		ldrb	r3, [r3]
 118 0014 DBB2     		uxtb	r3, r3
 119 0016 43F02003 		orr	r3, r3, #32
 120 001a DBB2     		uxtb	r3, r3
 121 001c 1370     		strb	r3, [r2]
 126:Generated_Source\PSoC5/SPIM_1.c ****     SPIM_1_TX_STATUS_ACTL_REG  |= SPIM_1_INT_ENABLE;
 122              		.loc 1 126 0
 123 001e 104A     		ldr	r2, .L5+4
 124 0020 0F4B     		ldr	r3, .L5+4
 125 0022 1B78     		ldrb	r3, [r3]
 126 0024 DBB2     		uxtb	r3, r3
 127 0026 43F01003 		orr	r3, r3, #16
 128 002a DBB2     		uxtb	r3, r3
 129 002c 1370     		strb	r3, [r2]
 127:Generated_Source\PSoC5/SPIM_1.c ****     SPIM_1_RX_STATUS_ACTL_REG  |= SPIM_1_INT_ENABLE;
 130              		.loc 1 127 0
 131 002e 0D4A     		ldr	r2, .L5+8
 132 0030 0C4B     		ldr	r3, .L5+8
 133 0032 1B78     		ldrb	r3, [r3]
 134 0034 DBB2     		uxtb	r3, r3
 135 0036 43F01003 		orr	r3, r3, #16
 136 003a DBB2     		uxtb	r3, r3
 137 003c 1370     		strb	r3, [r2]
 128:Generated_Source\PSoC5/SPIM_1.c ****     CyExitCriticalSection(enableInterrupts);
 138              		.loc 1 128 0
 139 003e FB79     		ldrb	r3, [r7, #7]	@ zero_extendqisi2
 140 0040 1846     		mov	r0, r3
 141 0042 FFF7FEFF 		bl	CyExitCriticalSection
 129:Generated_Source\PSoC5/SPIM_1.c **** 
 130:Generated_Source\PSoC5/SPIM_1.c ****     #if(0u != SPIM_1_INTERNAL_CLOCK)
 131:Generated_Source\PSoC5/SPIM_1.c ****         SPIM_1_IntClock_Enable();
 142              		.loc 1 131 0
 143 0046 FFF7FEFF 		bl	SPIM_1_IntClock_Start
 132:Generated_Source\PSoC5/SPIM_1.c ****     #endif /* (0u != SPIM_1_INTERNAL_CLOCK) */
 133:Generated_Source\PSoC5/SPIM_1.c **** 
 134:Generated_Source\PSoC5/SPIM_1.c ****     SPIM_1_EnableTxInt();
 144              		.loc 1 134 0
 145 004a FFF7FEFF 		bl	SPIM_1_EnableTxInt
 135:Generated_Source\PSoC5/SPIM_1.c ****     SPIM_1_EnableRxInt();
 146              		.loc 1 135 0
 147 004e FFF7FEFF 		bl	SPIM_1_EnableRxInt
 136:Generated_Source\PSoC5/SPIM_1.c **** }
 148              		.loc 1 136 0
 149 0052 00BF     		nop
ARM GAS  C:\Users\z004e6he\AppData\Local\Temp\ccx6P8oF.s 			page 6


 150 0054 0837     		adds	r7, r7, #8
 151              		.cfi_def_cfa_offset 8
 152 0056 BD46     		mov	sp, r7
 153              		.cfi_def_cfa_register 13
 154              		@ sp needed
 155 0058 80BD     		pop	{r7, pc}
 156              	.L6:
 157 005a 00BF     		.align	2
 158              	.L5:
 159 005c 97640040 		.word	1073767575
 160 0060 98650040 		.word	1073767832
 161 0064 99650040 		.word	1073767833
 162              		.cfi_endproc
 163              	.LFE1:
 164              		.size	SPIM_1_Enable, .-SPIM_1_Enable
 165              		.section	.text.SPIM_1_Start,"ax",%progbits
 166              		.align	2
 167              		.global	SPIM_1_Start
 168              		.thumb
 169              		.thumb_func
 170              		.type	SPIM_1_Start, %function
 171              	SPIM_1_Start:
 172              	.LFB2:
 137:Generated_Source\PSoC5/SPIM_1.c **** 
 138:Generated_Source\PSoC5/SPIM_1.c **** 
 139:Generated_Source\PSoC5/SPIM_1.c **** /*******************************************************************************
 140:Generated_Source\PSoC5/SPIM_1.c **** * Function Name: SPIM_1_Start
 141:Generated_Source\PSoC5/SPIM_1.c **** ********************************************************************************
 142:Generated_Source\PSoC5/SPIM_1.c **** *
 143:Generated_Source\PSoC5/SPIM_1.c **** * Summary:
 144:Generated_Source\PSoC5/SPIM_1.c **** *  Initialize and Enable the SPI Master component.
 145:Generated_Source\PSoC5/SPIM_1.c **** *
 146:Generated_Source\PSoC5/SPIM_1.c **** * Parameters:
 147:Generated_Source\PSoC5/SPIM_1.c **** *  None.
 148:Generated_Source\PSoC5/SPIM_1.c **** *
 149:Generated_Source\PSoC5/SPIM_1.c **** * Return:
 150:Generated_Source\PSoC5/SPIM_1.c **** *  None.
 151:Generated_Source\PSoC5/SPIM_1.c **** *
 152:Generated_Source\PSoC5/SPIM_1.c **** * Global variables:
 153:Generated_Source\PSoC5/SPIM_1.c **** *  SPIM_1_initVar - used to check initial configuration, modified on
 154:Generated_Source\PSoC5/SPIM_1.c **** *  first function call.
 155:Generated_Source\PSoC5/SPIM_1.c **** *
 156:Generated_Source\PSoC5/SPIM_1.c **** * Theory:
 157:Generated_Source\PSoC5/SPIM_1.c **** *  Enable the clock input to enable operation.
 158:Generated_Source\PSoC5/SPIM_1.c **** *
 159:Generated_Source\PSoC5/SPIM_1.c **** * Reentrant:
 160:Generated_Source\PSoC5/SPIM_1.c **** *  No.
 161:Generated_Source\PSoC5/SPIM_1.c **** *
 162:Generated_Source\PSoC5/SPIM_1.c **** *******************************************************************************/
 163:Generated_Source\PSoC5/SPIM_1.c **** void SPIM_1_Start(void) 
 164:Generated_Source\PSoC5/SPIM_1.c **** {
 173              		.loc 1 164 0
 174              		.cfi_startproc
 175              		@ args = 0, pretend = 0, frame = 0
 176              		@ frame_needed = 1, uses_anonymous_args = 0
 177 0000 80B5     		push	{r7, lr}
 178              		.cfi_def_cfa_offset 8
ARM GAS  C:\Users\z004e6he\AppData\Local\Temp\ccx6P8oF.s 			page 7


 179              		.cfi_offset 7, -8
 180              		.cfi_offset 14, -4
 181 0002 00AF     		add	r7, sp, #0
 182              		.cfi_def_cfa_register 7
 165:Generated_Source\PSoC5/SPIM_1.c ****     if(0u == SPIM_1_initVar)
 183              		.loc 1 165 0
 184 0004 064B     		ldr	r3, .L9
 185 0006 1B78     		ldrb	r3, [r3]	@ zero_extendqisi2
 186 0008 002B     		cmp	r3, #0
 187 000a 04D1     		bne	.L8
 166:Generated_Source\PSoC5/SPIM_1.c ****     {
 167:Generated_Source\PSoC5/SPIM_1.c ****         SPIM_1_Init();
 188              		.loc 1 167 0
 189 000c FFF7FEFF 		bl	SPIM_1_Init
 168:Generated_Source\PSoC5/SPIM_1.c ****         SPIM_1_initVar = 1u;
 190              		.loc 1 168 0
 191 0010 034B     		ldr	r3, .L9
 192 0012 0122     		movs	r2, #1
 193 0014 1A70     		strb	r2, [r3]
 194              	.L8:
 169:Generated_Source\PSoC5/SPIM_1.c ****     }
 170:Generated_Source\PSoC5/SPIM_1.c **** 
 171:Generated_Source\PSoC5/SPIM_1.c ****     SPIM_1_Enable();
 195              		.loc 1 171 0
 196 0016 FFF7FEFF 		bl	SPIM_1_Enable
 172:Generated_Source\PSoC5/SPIM_1.c **** }
 197              		.loc 1 172 0
 198 001a 00BF     		nop
 199 001c 80BD     		pop	{r7, pc}
 200              	.L10:
 201 001e 00BF     		.align	2
 202              	.L9:
 203 0020 00000000 		.word	SPIM_1_initVar
 204              		.cfi_endproc
 205              	.LFE2:
 206              		.size	SPIM_1_Start, .-SPIM_1_Start
 207              		.section	.text.SPIM_1_Stop,"ax",%progbits
 208              		.align	2
 209              		.global	SPIM_1_Stop
 210              		.thumb
 211              		.thumb_func
 212              		.type	SPIM_1_Stop, %function
 213              	SPIM_1_Stop:
 214              	.LFB3:
 173:Generated_Source\PSoC5/SPIM_1.c **** 
 174:Generated_Source\PSoC5/SPIM_1.c **** 
 175:Generated_Source\PSoC5/SPIM_1.c **** /*******************************************************************************
 176:Generated_Source\PSoC5/SPIM_1.c **** * Function Name: SPIM_1_Stop
 177:Generated_Source\PSoC5/SPIM_1.c **** ********************************************************************************
 178:Generated_Source\PSoC5/SPIM_1.c **** *
 179:Generated_Source\PSoC5/SPIM_1.c **** * Summary:
 180:Generated_Source\PSoC5/SPIM_1.c **** *  Disable the SPI Master component.
 181:Generated_Source\PSoC5/SPIM_1.c **** *
 182:Generated_Source\PSoC5/SPIM_1.c **** * Parameters:
 183:Generated_Source\PSoC5/SPIM_1.c **** *  None.
 184:Generated_Source\PSoC5/SPIM_1.c **** *
 185:Generated_Source\PSoC5/SPIM_1.c **** * Return:
ARM GAS  C:\Users\z004e6he\AppData\Local\Temp\ccx6P8oF.s 			page 8


 186:Generated_Source\PSoC5/SPIM_1.c **** *  None.
 187:Generated_Source\PSoC5/SPIM_1.c **** *
 188:Generated_Source\PSoC5/SPIM_1.c **** * Theory:
 189:Generated_Source\PSoC5/SPIM_1.c **** *  Disable the clock input to enable operation.
 190:Generated_Source\PSoC5/SPIM_1.c **** *
 191:Generated_Source\PSoC5/SPIM_1.c **** *******************************************************************************/
 192:Generated_Source\PSoC5/SPIM_1.c **** void SPIM_1_Stop(void) 
 193:Generated_Source\PSoC5/SPIM_1.c **** {
 215              		.loc 1 193 0
 216              		.cfi_startproc
 217              		@ args = 0, pretend = 0, frame = 8
 218              		@ frame_needed = 1, uses_anonymous_args = 0
 219 0000 80B5     		push	{r7, lr}
 220              		.cfi_def_cfa_offset 8
 221              		.cfi_offset 7, -8
 222              		.cfi_offset 14, -4
 223 0002 82B0     		sub	sp, sp, #8
 224              		.cfi_def_cfa_offset 16
 225 0004 00AF     		add	r7, sp, #0
 226              		.cfi_def_cfa_register 7
 194:Generated_Source\PSoC5/SPIM_1.c ****     uint8 enableInterrupts;
 195:Generated_Source\PSoC5/SPIM_1.c **** 
 196:Generated_Source\PSoC5/SPIM_1.c ****     enableInterrupts = CyEnterCriticalSection();
 227              		.loc 1 196 0
 228 0006 FFF7FEFF 		bl	CyEnterCriticalSection
 229 000a 0346     		mov	r3, r0
 230 000c FB71     		strb	r3, [r7, #7]
 197:Generated_Source\PSoC5/SPIM_1.c ****     SPIM_1_TX_STATUS_ACTL_REG &= ((uint8) ~SPIM_1_INT_ENABLE);
 231              		.loc 1 197 0
 232 000e 0F4A     		ldr	r2, .L12
 233 0010 0E4B     		ldr	r3, .L12
 234 0012 1B78     		ldrb	r3, [r3]
 235 0014 DBB2     		uxtb	r3, r3
 236 0016 23F01003 		bic	r3, r3, #16
 237 001a DBB2     		uxtb	r3, r3
 238 001c 1370     		strb	r3, [r2]
 198:Generated_Source\PSoC5/SPIM_1.c ****     SPIM_1_RX_STATUS_ACTL_REG &= ((uint8) ~SPIM_1_INT_ENABLE);
 239              		.loc 1 198 0
 240 001e 0C4A     		ldr	r2, .L12+4
 241 0020 0B4B     		ldr	r3, .L12+4
 242 0022 1B78     		ldrb	r3, [r3]
 243 0024 DBB2     		uxtb	r3, r3
 244 0026 23F01003 		bic	r3, r3, #16
 245 002a DBB2     		uxtb	r3, r3
 246 002c 1370     		strb	r3, [r2]
 199:Generated_Source\PSoC5/SPIM_1.c ****     CyExitCriticalSection(enableInterrupts);
 247              		.loc 1 199 0
 248 002e FB79     		ldrb	r3, [r7, #7]	@ zero_extendqisi2
 249 0030 1846     		mov	r0, r3
 250 0032 FFF7FEFF 		bl	CyExitCriticalSection
 200:Generated_Source\PSoC5/SPIM_1.c **** 
 201:Generated_Source\PSoC5/SPIM_1.c ****     #if(0u != SPIM_1_INTERNAL_CLOCK)
 202:Generated_Source\PSoC5/SPIM_1.c ****         SPIM_1_IntClock_Disable();
 251              		.loc 1 202 0
 252 0036 FFF7FEFF 		bl	SPIM_1_IntClock_Stop
 203:Generated_Source\PSoC5/SPIM_1.c ****     #endif /* (0u != SPIM_1_INTERNAL_CLOCK) */
 204:Generated_Source\PSoC5/SPIM_1.c **** 
ARM GAS  C:\Users\z004e6he\AppData\Local\Temp\ccx6P8oF.s 			page 9


 205:Generated_Source\PSoC5/SPIM_1.c ****     SPIM_1_DisableTxInt();
 253              		.loc 1 205 0
 254 003a FFF7FEFF 		bl	SPIM_1_DisableTxInt
 206:Generated_Source\PSoC5/SPIM_1.c ****     SPIM_1_DisableRxInt();
 255              		.loc 1 206 0
 256 003e FFF7FEFF 		bl	SPIM_1_DisableRxInt
 207:Generated_Source\PSoC5/SPIM_1.c **** }
 257              		.loc 1 207 0
 258 0042 00BF     		nop
 259 0044 0837     		adds	r7, r7, #8
 260              		.cfi_def_cfa_offset 8
 261 0046 BD46     		mov	sp, r7
 262              		.cfi_def_cfa_register 13
 263              		@ sp needed
 264 0048 80BD     		pop	{r7, pc}
 265              	.L13:
 266 004a 00BF     		.align	2
 267              	.L12:
 268 004c 98650040 		.word	1073767832
 269 0050 99650040 		.word	1073767833
 270              		.cfi_endproc
 271              	.LFE3:
 272              		.size	SPIM_1_Stop, .-SPIM_1_Stop
 273              		.section	.text.SPIM_1_EnableTxInt,"ax",%progbits
 274              		.align	2
 275              		.global	SPIM_1_EnableTxInt
 276              		.thumb
 277              		.thumb_func
 278              		.type	SPIM_1_EnableTxInt, %function
 279              	SPIM_1_EnableTxInt:
 280              	.LFB4:
 208:Generated_Source\PSoC5/SPIM_1.c **** 
 209:Generated_Source\PSoC5/SPIM_1.c **** 
 210:Generated_Source\PSoC5/SPIM_1.c **** /*******************************************************************************
 211:Generated_Source\PSoC5/SPIM_1.c **** * Function Name: SPIM_1_EnableTxInt
 212:Generated_Source\PSoC5/SPIM_1.c **** ********************************************************************************
 213:Generated_Source\PSoC5/SPIM_1.c **** *
 214:Generated_Source\PSoC5/SPIM_1.c **** * Summary:
 215:Generated_Source\PSoC5/SPIM_1.c **** *  Enable internal Tx interrupt generation.
 216:Generated_Source\PSoC5/SPIM_1.c **** *
 217:Generated_Source\PSoC5/SPIM_1.c **** * Parameters:
 218:Generated_Source\PSoC5/SPIM_1.c **** *  None.
 219:Generated_Source\PSoC5/SPIM_1.c **** *
 220:Generated_Source\PSoC5/SPIM_1.c **** * Return:
 221:Generated_Source\PSoC5/SPIM_1.c **** *  None.
 222:Generated_Source\PSoC5/SPIM_1.c **** *
 223:Generated_Source\PSoC5/SPIM_1.c **** * Theory:
 224:Generated_Source\PSoC5/SPIM_1.c **** *  Enable the internal Tx interrupt output -or- the interrupt component itself.
 225:Generated_Source\PSoC5/SPIM_1.c **** *
 226:Generated_Source\PSoC5/SPIM_1.c **** *******************************************************************************/
 227:Generated_Source\PSoC5/SPIM_1.c **** void SPIM_1_EnableTxInt(void) 
 228:Generated_Source\PSoC5/SPIM_1.c **** {
 281              		.loc 1 228 0
 282              		.cfi_startproc
 283              		@ args = 0, pretend = 0, frame = 0
 284              		@ frame_needed = 1, uses_anonymous_args = 0
 285              		@ link register save eliminated.
ARM GAS  C:\Users\z004e6he\AppData\Local\Temp\ccx6P8oF.s 			page 10


 286 0000 80B4     		push	{r7}
 287              		.cfi_def_cfa_offset 4
 288              		.cfi_offset 7, -4
 289 0002 00AF     		add	r7, sp, #0
 290              		.cfi_def_cfa_register 7
 229:Generated_Source\PSoC5/SPIM_1.c ****     #if(0u != SPIM_1_INTERNAL_TX_INT_ENABLED)
 230:Generated_Source\PSoC5/SPIM_1.c ****         CyIntEnable(SPIM_1_TX_ISR_NUMBER);
 291              		.loc 1 230 0
 292 0004 034B     		ldr	r3, .L15
 293 0006 0222     		movs	r2, #2
 294 0008 1A60     		str	r2, [r3]
 231:Generated_Source\PSoC5/SPIM_1.c ****     #endif /* (0u != SPIM_1_INTERNAL_TX_INT_ENABLED) */
 232:Generated_Source\PSoC5/SPIM_1.c **** }
 295              		.loc 1 232 0
 296 000a 00BF     		nop
 297 000c BD46     		mov	sp, r7
 298              		.cfi_def_cfa_register 13
 299              		@ sp needed
 300 000e 80BC     		pop	{r7}
 301              		.cfi_restore 7
 302              		.cfi_def_cfa_offset 0
 303 0010 7047     		bx	lr
 304              	.L16:
 305 0012 00BF     		.align	2
 306              	.L15:
 307 0014 00E100E0 		.word	-536813312
 308              		.cfi_endproc
 309              	.LFE4:
 310              		.size	SPIM_1_EnableTxInt, .-SPIM_1_EnableTxInt
 311              		.section	.text.SPIM_1_EnableRxInt,"ax",%progbits
 312              		.align	2
 313              		.global	SPIM_1_EnableRxInt
 314              		.thumb
 315              		.thumb_func
 316              		.type	SPIM_1_EnableRxInt, %function
 317              	SPIM_1_EnableRxInt:
 318              	.LFB5:
 233:Generated_Source\PSoC5/SPIM_1.c **** 
 234:Generated_Source\PSoC5/SPIM_1.c **** 
 235:Generated_Source\PSoC5/SPIM_1.c **** /*******************************************************************************
 236:Generated_Source\PSoC5/SPIM_1.c **** * Function Name: SPIM_1_EnableRxInt
 237:Generated_Source\PSoC5/SPIM_1.c **** ********************************************************************************
 238:Generated_Source\PSoC5/SPIM_1.c **** *
 239:Generated_Source\PSoC5/SPIM_1.c **** * Summary:
 240:Generated_Source\PSoC5/SPIM_1.c **** *  Enable internal Rx interrupt generation.
 241:Generated_Source\PSoC5/SPIM_1.c **** *
 242:Generated_Source\PSoC5/SPIM_1.c **** * Parameters:
 243:Generated_Source\PSoC5/SPIM_1.c **** *  None.
 244:Generated_Source\PSoC5/SPIM_1.c **** *
 245:Generated_Source\PSoC5/SPIM_1.c **** * Return:
 246:Generated_Source\PSoC5/SPIM_1.c **** *  None.
 247:Generated_Source\PSoC5/SPIM_1.c **** *
 248:Generated_Source\PSoC5/SPIM_1.c **** * Theory:
 249:Generated_Source\PSoC5/SPIM_1.c **** *  Enable the internal Rx interrupt output -or- the interrupt component itself.
 250:Generated_Source\PSoC5/SPIM_1.c **** *
 251:Generated_Source\PSoC5/SPIM_1.c **** *******************************************************************************/
 252:Generated_Source\PSoC5/SPIM_1.c **** void SPIM_1_EnableRxInt(void) 
ARM GAS  C:\Users\z004e6he\AppData\Local\Temp\ccx6P8oF.s 			page 11


 253:Generated_Source\PSoC5/SPIM_1.c **** {
 319              		.loc 1 253 0
 320              		.cfi_startproc
 321              		@ args = 0, pretend = 0, frame = 0
 322              		@ frame_needed = 1, uses_anonymous_args = 0
 323              		@ link register save eliminated.
 324 0000 80B4     		push	{r7}
 325              		.cfi_def_cfa_offset 4
 326              		.cfi_offset 7, -4
 327 0002 00AF     		add	r7, sp, #0
 328              		.cfi_def_cfa_register 7
 254:Generated_Source\PSoC5/SPIM_1.c ****     #if(0u != SPIM_1_INTERNAL_RX_INT_ENABLED)
 255:Generated_Source\PSoC5/SPIM_1.c ****         CyIntEnable(SPIM_1_RX_ISR_NUMBER);
 256:Generated_Source\PSoC5/SPIM_1.c ****     #endif /* (0u != SPIM_1_INTERNAL_RX_INT_ENABLED) */
 257:Generated_Source\PSoC5/SPIM_1.c **** }
 329              		.loc 1 257 0
 330 0004 00BF     		nop
 331 0006 BD46     		mov	sp, r7
 332              		.cfi_def_cfa_register 13
 333              		@ sp needed
 334 0008 80BC     		pop	{r7}
 335              		.cfi_restore 7
 336              		.cfi_def_cfa_offset 0
 337 000a 7047     		bx	lr
 338              		.cfi_endproc
 339              	.LFE5:
 340              		.size	SPIM_1_EnableRxInt, .-SPIM_1_EnableRxInt
 341              		.section	.text.SPIM_1_DisableTxInt,"ax",%progbits
 342              		.align	2
 343              		.global	SPIM_1_DisableTxInt
 344              		.thumb
 345              		.thumb_func
 346              		.type	SPIM_1_DisableTxInt, %function
 347              	SPIM_1_DisableTxInt:
 348              	.LFB6:
 258:Generated_Source\PSoC5/SPIM_1.c **** 
 259:Generated_Source\PSoC5/SPIM_1.c **** 
 260:Generated_Source\PSoC5/SPIM_1.c **** /*******************************************************************************
 261:Generated_Source\PSoC5/SPIM_1.c **** * Function Name: SPIM_1_DisableTxInt
 262:Generated_Source\PSoC5/SPIM_1.c **** ********************************************************************************
 263:Generated_Source\PSoC5/SPIM_1.c **** *
 264:Generated_Source\PSoC5/SPIM_1.c **** * Summary:
 265:Generated_Source\PSoC5/SPIM_1.c **** *  Disable internal Tx interrupt generation.
 266:Generated_Source\PSoC5/SPIM_1.c **** *
 267:Generated_Source\PSoC5/SPIM_1.c **** * Parameters:
 268:Generated_Source\PSoC5/SPIM_1.c **** *  None.
 269:Generated_Source\PSoC5/SPIM_1.c **** *
 270:Generated_Source\PSoC5/SPIM_1.c **** * Return:
 271:Generated_Source\PSoC5/SPIM_1.c **** *  None.
 272:Generated_Source\PSoC5/SPIM_1.c **** *
 273:Generated_Source\PSoC5/SPIM_1.c **** * Theory:
 274:Generated_Source\PSoC5/SPIM_1.c **** *  Disable the internal Tx interrupt output -or- the interrupt component itself.
 275:Generated_Source\PSoC5/SPIM_1.c **** *
 276:Generated_Source\PSoC5/SPIM_1.c **** *******************************************************************************/
 277:Generated_Source\PSoC5/SPIM_1.c **** void SPIM_1_DisableTxInt(void) 
 278:Generated_Source\PSoC5/SPIM_1.c **** {
 349              		.loc 1 278 0
ARM GAS  C:\Users\z004e6he\AppData\Local\Temp\ccx6P8oF.s 			page 12


 350              		.cfi_startproc
 351              		@ args = 0, pretend = 0, frame = 0
 352              		@ frame_needed = 1, uses_anonymous_args = 0
 353              		@ link register save eliminated.
 354 0000 80B4     		push	{r7}
 355              		.cfi_def_cfa_offset 4
 356              		.cfi_offset 7, -4
 357 0002 00AF     		add	r7, sp, #0
 358              		.cfi_def_cfa_register 7
 279:Generated_Source\PSoC5/SPIM_1.c ****     #if(0u != SPIM_1_INTERNAL_TX_INT_ENABLED)
 280:Generated_Source\PSoC5/SPIM_1.c ****         CyIntDisable(SPIM_1_TX_ISR_NUMBER);
 359              		.loc 1 280 0
 360 0004 034B     		ldr	r3, .L19
 361 0006 0222     		movs	r2, #2
 362 0008 1A60     		str	r2, [r3]
 281:Generated_Source\PSoC5/SPIM_1.c ****     #endif /* (0u != SPIM_1_INTERNAL_TX_INT_ENABLED) */
 282:Generated_Source\PSoC5/SPIM_1.c **** }
 363              		.loc 1 282 0
 364 000a 00BF     		nop
 365 000c BD46     		mov	sp, r7
 366              		.cfi_def_cfa_register 13
 367              		@ sp needed
 368 000e 80BC     		pop	{r7}
 369              		.cfi_restore 7
 370              		.cfi_def_cfa_offset 0
 371 0010 7047     		bx	lr
 372              	.L20:
 373 0012 00BF     		.align	2
 374              	.L19:
 375 0014 80E100E0 		.word	-536813184
 376              		.cfi_endproc
 377              	.LFE6:
 378              		.size	SPIM_1_DisableTxInt, .-SPIM_1_DisableTxInt
 379              		.section	.text.SPIM_1_DisableRxInt,"ax",%progbits
 380              		.align	2
 381              		.global	SPIM_1_DisableRxInt
 382              		.thumb
 383              		.thumb_func
 384              		.type	SPIM_1_DisableRxInt, %function
 385              	SPIM_1_DisableRxInt:
 386              	.LFB7:
 283:Generated_Source\PSoC5/SPIM_1.c **** 
 284:Generated_Source\PSoC5/SPIM_1.c **** 
 285:Generated_Source\PSoC5/SPIM_1.c **** /*******************************************************************************
 286:Generated_Source\PSoC5/SPIM_1.c **** * Function Name: SPIM_1_DisableRxInt
 287:Generated_Source\PSoC5/SPIM_1.c **** ********************************************************************************
 288:Generated_Source\PSoC5/SPIM_1.c **** *
 289:Generated_Source\PSoC5/SPIM_1.c **** * Summary:
 290:Generated_Source\PSoC5/SPIM_1.c **** *  Disable internal Rx interrupt generation.
 291:Generated_Source\PSoC5/SPIM_1.c **** *
 292:Generated_Source\PSoC5/SPIM_1.c **** * Parameters:
 293:Generated_Source\PSoC5/SPIM_1.c **** *  None.
 294:Generated_Source\PSoC5/SPIM_1.c **** *
 295:Generated_Source\PSoC5/SPIM_1.c **** * Return:
 296:Generated_Source\PSoC5/SPIM_1.c **** *  None.
 297:Generated_Source\PSoC5/SPIM_1.c **** *
 298:Generated_Source\PSoC5/SPIM_1.c **** * Theory:
ARM GAS  C:\Users\z004e6he\AppData\Local\Temp\ccx6P8oF.s 			page 13


 299:Generated_Source\PSoC5/SPIM_1.c **** *  Disable the internal Rx interrupt output -or- the interrupt component itself.
 300:Generated_Source\PSoC5/SPIM_1.c **** *
 301:Generated_Source\PSoC5/SPIM_1.c **** *******************************************************************************/
 302:Generated_Source\PSoC5/SPIM_1.c **** void SPIM_1_DisableRxInt(void) 
 303:Generated_Source\PSoC5/SPIM_1.c **** {
 387              		.loc 1 303 0
 388              		.cfi_startproc
 389              		@ args = 0, pretend = 0, frame = 0
 390              		@ frame_needed = 1, uses_anonymous_args = 0
 391              		@ link register save eliminated.
 392 0000 80B4     		push	{r7}
 393              		.cfi_def_cfa_offset 4
 394              		.cfi_offset 7, -4
 395 0002 00AF     		add	r7, sp, #0
 396              		.cfi_def_cfa_register 7
 304:Generated_Source\PSoC5/SPIM_1.c ****     #if(0u != SPIM_1_INTERNAL_RX_INT_ENABLED)
 305:Generated_Source\PSoC5/SPIM_1.c ****         CyIntDisable(SPIM_1_RX_ISR_NUMBER);
 306:Generated_Source\PSoC5/SPIM_1.c ****     #endif /* (0u != SPIM_1_INTERNAL_RX_INT_ENABLED) */
 307:Generated_Source\PSoC5/SPIM_1.c **** }
 397              		.loc 1 307 0
 398 0004 00BF     		nop
 399 0006 BD46     		mov	sp, r7
 400              		.cfi_def_cfa_register 13
 401              		@ sp needed
 402 0008 80BC     		pop	{r7}
 403              		.cfi_restore 7
 404              		.cfi_def_cfa_offset 0
 405 000a 7047     		bx	lr
 406              		.cfi_endproc
 407              	.LFE7:
 408              		.size	SPIM_1_DisableRxInt, .-SPIM_1_DisableRxInt
 409              		.section	.text.SPIM_1_SetTxInterruptMode,"ax",%progbits
 410              		.align	2
 411              		.global	SPIM_1_SetTxInterruptMode
 412              		.thumb
 413              		.thumb_func
 414              		.type	SPIM_1_SetTxInterruptMode, %function
 415              	SPIM_1_SetTxInterruptMode:
 416              	.LFB8:
 308:Generated_Source\PSoC5/SPIM_1.c **** 
 309:Generated_Source\PSoC5/SPIM_1.c **** 
 310:Generated_Source\PSoC5/SPIM_1.c **** /*******************************************************************************
 311:Generated_Source\PSoC5/SPIM_1.c **** * Function Name: SPIM_1_SetTxInterruptMode
 312:Generated_Source\PSoC5/SPIM_1.c **** ********************************************************************************
 313:Generated_Source\PSoC5/SPIM_1.c **** *
 314:Generated_Source\PSoC5/SPIM_1.c **** * Summary:
 315:Generated_Source\PSoC5/SPIM_1.c **** *  Configure which status bits trigger an interrupt event.
 316:Generated_Source\PSoC5/SPIM_1.c **** *
 317:Generated_Source\PSoC5/SPIM_1.c **** * Parameters:
 318:Generated_Source\PSoC5/SPIM_1.c **** *  intSrc: An or'd combination of the desired status bit masks (defined in the
 319:Generated_Source\PSoC5/SPIM_1.c **** *  header file).
 320:Generated_Source\PSoC5/SPIM_1.c **** *
 321:Generated_Source\PSoC5/SPIM_1.c **** * Return:
 322:Generated_Source\PSoC5/SPIM_1.c **** *  None.
 323:Generated_Source\PSoC5/SPIM_1.c **** *
 324:Generated_Source\PSoC5/SPIM_1.c **** * Theory:
 325:Generated_Source\PSoC5/SPIM_1.c **** *  Enables the output of specific status bits to the interrupt controller.
ARM GAS  C:\Users\z004e6he\AppData\Local\Temp\ccx6P8oF.s 			page 14


 326:Generated_Source\PSoC5/SPIM_1.c **** *
 327:Generated_Source\PSoC5/SPIM_1.c **** *******************************************************************************/
 328:Generated_Source\PSoC5/SPIM_1.c **** void SPIM_1_SetTxInterruptMode(uint8 intSrc) 
 329:Generated_Source\PSoC5/SPIM_1.c **** {
 417              		.loc 1 329 0
 418              		.cfi_startproc
 419              		@ args = 0, pretend = 0, frame = 8
 420              		@ frame_needed = 1, uses_anonymous_args = 0
 421              		@ link register save eliminated.
 422 0000 80B4     		push	{r7}
 423              		.cfi_def_cfa_offset 4
 424              		.cfi_offset 7, -4
 425 0002 83B0     		sub	sp, sp, #12
 426              		.cfi_def_cfa_offset 16
 427 0004 00AF     		add	r7, sp, #0
 428              		.cfi_def_cfa_register 7
 429 0006 0346     		mov	r3, r0
 430 0008 FB71     		strb	r3, [r7, #7]
 330:Generated_Source\PSoC5/SPIM_1.c ****     SPIM_1_TX_STATUS_MASK_REG = intSrc;
 431              		.loc 1 330 0
 432 000a 044A     		ldr	r2, .L23
 433 000c FB79     		ldrb	r3, [r7, #7]
 434 000e 1370     		strb	r3, [r2]
 331:Generated_Source\PSoC5/SPIM_1.c **** }
 435              		.loc 1 331 0
 436 0010 00BF     		nop
 437 0012 0C37     		adds	r7, r7, #12
 438              		.cfi_def_cfa_offset 4
 439 0014 BD46     		mov	sp, r7
 440              		.cfi_def_cfa_register 13
 441              		@ sp needed
 442 0016 80BC     		pop	{r7}
 443              		.cfi_restore 7
 444              		.cfi_def_cfa_offset 0
 445 0018 7047     		bx	lr
 446              	.L24:
 447 001a 00BF     		.align	2
 448              	.L23:
 449 001c 88650040 		.word	1073767816
 450              		.cfi_endproc
 451              	.LFE8:
 452              		.size	SPIM_1_SetTxInterruptMode, .-SPIM_1_SetTxInterruptMode
 453              		.section	.text.SPIM_1_SetRxInterruptMode,"ax",%progbits
 454              		.align	2
 455              		.global	SPIM_1_SetRxInterruptMode
 456              		.thumb
 457              		.thumb_func
 458              		.type	SPIM_1_SetRxInterruptMode, %function
 459              	SPIM_1_SetRxInterruptMode:
 460              	.LFB9:
 332:Generated_Source\PSoC5/SPIM_1.c **** 
 333:Generated_Source\PSoC5/SPIM_1.c **** 
 334:Generated_Source\PSoC5/SPIM_1.c **** /*******************************************************************************
 335:Generated_Source\PSoC5/SPIM_1.c **** * Function Name: SPIM_1_SetRxInterruptMode
 336:Generated_Source\PSoC5/SPIM_1.c **** ********************************************************************************
 337:Generated_Source\PSoC5/SPIM_1.c **** *
 338:Generated_Source\PSoC5/SPIM_1.c **** * Summary:
ARM GAS  C:\Users\z004e6he\AppData\Local\Temp\ccx6P8oF.s 			page 15


 339:Generated_Source\PSoC5/SPIM_1.c **** *  Configure which status bits trigger an interrupt event.
 340:Generated_Source\PSoC5/SPIM_1.c **** *
 341:Generated_Source\PSoC5/SPIM_1.c **** * Parameters:
 342:Generated_Source\PSoC5/SPIM_1.c **** *  intSrc: An or'd combination of the desired status bit masks (defined in the
 343:Generated_Source\PSoC5/SPIM_1.c **** *  header file).
 344:Generated_Source\PSoC5/SPIM_1.c **** *
 345:Generated_Source\PSoC5/SPIM_1.c **** * Return:
 346:Generated_Source\PSoC5/SPIM_1.c **** *  None.
 347:Generated_Source\PSoC5/SPIM_1.c **** *
 348:Generated_Source\PSoC5/SPIM_1.c **** * Theory:
 349:Generated_Source\PSoC5/SPIM_1.c **** *  Enables the output of specific status bits to the interrupt controller.
 350:Generated_Source\PSoC5/SPIM_1.c **** *
 351:Generated_Source\PSoC5/SPIM_1.c **** *******************************************************************************/
 352:Generated_Source\PSoC5/SPIM_1.c **** void SPIM_1_SetRxInterruptMode(uint8 intSrc) 
 353:Generated_Source\PSoC5/SPIM_1.c **** {
 461              		.loc 1 353 0
 462              		.cfi_startproc
 463              		@ args = 0, pretend = 0, frame = 8
 464              		@ frame_needed = 1, uses_anonymous_args = 0
 465              		@ link register save eliminated.
 466 0000 80B4     		push	{r7}
 467              		.cfi_def_cfa_offset 4
 468              		.cfi_offset 7, -4
 469 0002 83B0     		sub	sp, sp, #12
 470              		.cfi_def_cfa_offset 16
 471 0004 00AF     		add	r7, sp, #0
 472              		.cfi_def_cfa_register 7
 473 0006 0346     		mov	r3, r0
 474 0008 FB71     		strb	r3, [r7, #7]
 354:Generated_Source\PSoC5/SPIM_1.c ****     SPIM_1_RX_STATUS_MASK_REG  = intSrc;
 475              		.loc 1 354 0
 476 000a 044A     		ldr	r2, .L26
 477 000c FB79     		ldrb	r3, [r7, #7]
 478 000e 1370     		strb	r3, [r2]
 355:Generated_Source\PSoC5/SPIM_1.c **** }
 479              		.loc 1 355 0
 480 0010 00BF     		nop
 481 0012 0C37     		adds	r7, r7, #12
 482              		.cfi_def_cfa_offset 4
 483 0014 BD46     		mov	sp, r7
 484              		.cfi_def_cfa_register 13
 485              		@ sp needed
 486 0016 80BC     		pop	{r7}
 487              		.cfi_restore 7
 488              		.cfi_def_cfa_offset 0
 489 0018 7047     		bx	lr
 490              	.L27:
 491 001a 00BF     		.align	2
 492              	.L26:
 493 001c 89650040 		.word	1073767817
 494              		.cfi_endproc
 495              	.LFE9:
 496              		.size	SPIM_1_SetRxInterruptMode, .-SPIM_1_SetRxInterruptMode
 497              		.section	.text.SPIM_1_ReadTxStatus,"ax",%progbits
 498              		.align	2
 499              		.global	SPIM_1_ReadTxStatus
 500              		.thumb
ARM GAS  C:\Users\z004e6he\AppData\Local\Temp\ccx6P8oF.s 			page 16


 501              		.thumb_func
 502              		.type	SPIM_1_ReadTxStatus, %function
 503              	SPIM_1_ReadTxStatus:
 504              	.LFB10:
 356:Generated_Source\PSoC5/SPIM_1.c **** 
 357:Generated_Source\PSoC5/SPIM_1.c **** 
 358:Generated_Source\PSoC5/SPIM_1.c **** /*******************************************************************************
 359:Generated_Source\PSoC5/SPIM_1.c **** * Function Name: SPIM_1_ReadTxStatus
 360:Generated_Source\PSoC5/SPIM_1.c **** ********************************************************************************
 361:Generated_Source\PSoC5/SPIM_1.c **** *
 362:Generated_Source\PSoC5/SPIM_1.c **** * Summary:
 363:Generated_Source\PSoC5/SPIM_1.c **** *  Read the Tx status register for the component.
 364:Generated_Source\PSoC5/SPIM_1.c **** *
 365:Generated_Source\PSoC5/SPIM_1.c **** * Parameters:
 366:Generated_Source\PSoC5/SPIM_1.c **** *  None.
 367:Generated_Source\PSoC5/SPIM_1.c **** *
 368:Generated_Source\PSoC5/SPIM_1.c **** * Return:
 369:Generated_Source\PSoC5/SPIM_1.c **** *  Contents of the Tx status register.
 370:Generated_Source\PSoC5/SPIM_1.c **** *
 371:Generated_Source\PSoC5/SPIM_1.c **** * Global variables:
 372:Generated_Source\PSoC5/SPIM_1.c **** *  SPIM_1_swStatusTx - used to store in software status register,
 373:Generated_Source\PSoC5/SPIM_1.c **** *  modified every function call - resets to zero.
 374:Generated_Source\PSoC5/SPIM_1.c **** *
 375:Generated_Source\PSoC5/SPIM_1.c **** * Theory:
 376:Generated_Source\PSoC5/SPIM_1.c **** *  Allows the user and the API to read the Tx status register for error
 377:Generated_Source\PSoC5/SPIM_1.c **** *  detection and flow control.
 378:Generated_Source\PSoC5/SPIM_1.c **** *
 379:Generated_Source\PSoC5/SPIM_1.c **** * Side Effects:
 380:Generated_Source\PSoC5/SPIM_1.c **** *  Clear Tx status register of the component.
 381:Generated_Source\PSoC5/SPIM_1.c **** *
 382:Generated_Source\PSoC5/SPIM_1.c **** * Reentrant:
 383:Generated_Source\PSoC5/SPIM_1.c **** *  No.
 384:Generated_Source\PSoC5/SPIM_1.c **** *
 385:Generated_Source\PSoC5/SPIM_1.c **** *******************************************************************************/
 386:Generated_Source\PSoC5/SPIM_1.c **** uint8 SPIM_1_ReadTxStatus(void) 
 387:Generated_Source\PSoC5/SPIM_1.c **** {
 505              		.loc 1 387 0
 506              		.cfi_startproc
 507              		@ args = 0, pretend = 0, frame = 8
 508              		@ frame_needed = 1, uses_anonymous_args = 0
 509              		@ link register save eliminated.
 510 0000 80B4     		push	{r7}
 511              		.cfi_def_cfa_offset 4
 512              		.cfi_offset 7, -4
 513 0002 83B0     		sub	sp, sp, #12
 514              		.cfi_def_cfa_offset 16
 515 0004 00AF     		add	r7, sp, #0
 516              		.cfi_def_cfa_register 7
 388:Generated_Source\PSoC5/SPIM_1.c ****     uint8 tmpStatus;
 389:Generated_Source\PSoC5/SPIM_1.c **** 
 390:Generated_Source\PSoC5/SPIM_1.c ****     #if(SPIM_1_TX_SOFTWARE_BUF_ENABLED)
 391:Generated_Source\PSoC5/SPIM_1.c ****         /* Disable TX interrupt to protect global veriables */
 392:Generated_Source\PSoC5/SPIM_1.c ****         SPIM_1_DisableTxInt();
 393:Generated_Source\PSoC5/SPIM_1.c **** 
 394:Generated_Source\PSoC5/SPIM_1.c ****         tmpStatus = SPIM_1_GET_STATUS_TX(SPIM_1_swStatusTx);
 395:Generated_Source\PSoC5/SPIM_1.c ****         SPIM_1_swStatusTx = 0u;
 396:Generated_Source\PSoC5/SPIM_1.c **** 
ARM GAS  C:\Users\z004e6he\AppData\Local\Temp\ccx6P8oF.s 			page 17


 397:Generated_Source\PSoC5/SPIM_1.c ****         SPIM_1_EnableTxInt();
 398:Generated_Source\PSoC5/SPIM_1.c **** 
 399:Generated_Source\PSoC5/SPIM_1.c ****     #else
 400:Generated_Source\PSoC5/SPIM_1.c **** 
 401:Generated_Source\PSoC5/SPIM_1.c ****         tmpStatus = SPIM_1_TX_STATUS_REG;
 517              		.loc 1 401 0
 518 0006 044B     		ldr	r3, .L30
 519 0008 1B78     		ldrb	r3, [r3]
 520 000a FB71     		strb	r3, [r7, #7]
 402:Generated_Source\PSoC5/SPIM_1.c **** 
 403:Generated_Source\PSoC5/SPIM_1.c ****     #endif /* (SPIM_1_TX_SOFTWARE_BUF_ENABLED) */
 404:Generated_Source\PSoC5/SPIM_1.c **** 
 405:Generated_Source\PSoC5/SPIM_1.c ****     return(tmpStatus);
 521              		.loc 1 405 0
 522 000c FB79     		ldrb	r3, [r7, #7]	@ zero_extendqisi2
 406:Generated_Source\PSoC5/SPIM_1.c **** }
 523              		.loc 1 406 0
 524 000e 1846     		mov	r0, r3
 525 0010 0C37     		adds	r7, r7, #12
 526              		.cfi_def_cfa_offset 4
 527 0012 BD46     		mov	sp, r7
 528              		.cfi_def_cfa_register 13
 529              		@ sp needed
 530 0014 80BC     		pop	{r7}
 531              		.cfi_restore 7
 532              		.cfi_def_cfa_offset 0
 533 0016 7047     		bx	lr
 534              	.L31:
 535              		.align	2
 536              	.L30:
 537 0018 68650040 		.word	1073767784
 538              		.cfi_endproc
 539              	.LFE10:
 540              		.size	SPIM_1_ReadTxStatus, .-SPIM_1_ReadTxStatus
 541              		.section	.text.SPIM_1_ReadRxStatus,"ax",%progbits
 542              		.align	2
 543              		.global	SPIM_1_ReadRxStatus
 544              		.thumb
 545              		.thumb_func
 546              		.type	SPIM_1_ReadRxStatus, %function
 547              	SPIM_1_ReadRxStatus:
 548              	.LFB11:
 407:Generated_Source\PSoC5/SPIM_1.c **** 
 408:Generated_Source\PSoC5/SPIM_1.c **** 
 409:Generated_Source\PSoC5/SPIM_1.c **** /*******************************************************************************
 410:Generated_Source\PSoC5/SPIM_1.c **** * Function Name: SPIM_1_ReadRxStatus
 411:Generated_Source\PSoC5/SPIM_1.c **** ********************************************************************************
 412:Generated_Source\PSoC5/SPIM_1.c **** *
 413:Generated_Source\PSoC5/SPIM_1.c **** * Summary:
 414:Generated_Source\PSoC5/SPIM_1.c **** *  Read the Rx status register for the component.
 415:Generated_Source\PSoC5/SPIM_1.c **** *
 416:Generated_Source\PSoC5/SPIM_1.c **** * Parameters:
 417:Generated_Source\PSoC5/SPIM_1.c **** *  None.
 418:Generated_Source\PSoC5/SPIM_1.c **** *
 419:Generated_Source\PSoC5/SPIM_1.c **** * Return:
 420:Generated_Source\PSoC5/SPIM_1.c **** *  Contents of the Rx status register.
 421:Generated_Source\PSoC5/SPIM_1.c **** *
ARM GAS  C:\Users\z004e6he\AppData\Local\Temp\ccx6P8oF.s 			page 18


 422:Generated_Source\PSoC5/SPIM_1.c **** * Global variables:
 423:Generated_Source\PSoC5/SPIM_1.c **** *  SPIM_1_swStatusRx - used to store in software Rx status register,
 424:Generated_Source\PSoC5/SPIM_1.c **** *  modified every function call - resets to zero.
 425:Generated_Source\PSoC5/SPIM_1.c **** *
 426:Generated_Source\PSoC5/SPIM_1.c **** * Theory:
 427:Generated_Source\PSoC5/SPIM_1.c **** *  Allows the user and the API to read the Rx status register for error
 428:Generated_Source\PSoC5/SPIM_1.c **** *  detection and flow control.
 429:Generated_Source\PSoC5/SPIM_1.c **** *
 430:Generated_Source\PSoC5/SPIM_1.c **** * Side Effects:
 431:Generated_Source\PSoC5/SPIM_1.c **** *  Clear Rx status register of the component.
 432:Generated_Source\PSoC5/SPIM_1.c **** *
 433:Generated_Source\PSoC5/SPIM_1.c **** * Reentrant:
 434:Generated_Source\PSoC5/SPIM_1.c **** *  No.
 435:Generated_Source\PSoC5/SPIM_1.c **** *
 436:Generated_Source\PSoC5/SPIM_1.c **** *******************************************************************************/
 437:Generated_Source\PSoC5/SPIM_1.c **** uint8 SPIM_1_ReadRxStatus(void) 
 438:Generated_Source\PSoC5/SPIM_1.c **** {
 549              		.loc 1 438 0
 550              		.cfi_startproc
 551              		@ args = 0, pretend = 0, frame = 8
 552              		@ frame_needed = 1, uses_anonymous_args = 0
 553              		@ link register save eliminated.
 554 0000 80B4     		push	{r7}
 555              		.cfi_def_cfa_offset 4
 556              		.cfi_offset 7, -4
 557 0002 83B0     		sub	sp, sp, #12
 558              		.cfi_def_cfa_offset 16
 559 0004 00AF     		add	r7, sp, #0
 560              		.cfi_def_cfa_register 7
 439:Generated_Source\PSoC5/SPIM_1.c ****     uint8 tmpStatus;
 440:Generated_Source\PSoC5/SPIM_1.c **** 
 441:Generated_Source\PSoC5/SPIM_1.c ****     #if(SPIM_1_RX_SOFTWARE_BUF_ENABLED)
 442:Generated_Source\PSoC5/SPIM_1.c ****         /* Disable RX interrupt to protect global veriables */
 443:Generated_Source\PSoC5/SPIM_1.c ****         SPIM_1_DisableRxInt();
 444:Generated_Source\PSoC5/SPIM_1.c **** 
 445:Generated_Source\PSoC5/SPIM_1.c ****         tmpStatus = SPIM_1_GET_STATUS_RX(SPIM_1_swStatusRx);
 446:Generated_Source\PSoC5/SPIM_1.c ****         SPIM_1_swStatusRx = 0u;
 447:Generated_Source\PSoC5/SPIM_1.c **** 
 448:Generated_Source\PSoC5/SPIM_1.c ****         SPIM_1_EnableRxInt();
 449:Generated_Source\PSoC5/SPIM_1.c **** 
 450:Generated_Source\PSoC5/SPIM_1.c ****     #else
 451:Generated_Source\PSoC5/SPIM_1.c **** 
 452:Generated_Source\PSoC5/SPIM_1.c ****         tmpStatus = SPIM_1_RX_STATUS_REG;
 561              		.loc 1 452 0
 562 0006 044B     		ldr	r3, .L34
 563 0008 1B78     		ldrb	r3, [r3]
 564 000a FB71     		strb	r3, [r7, #7]
 453:Generated_Source\PSoC5/SPIM_1.c **** 
 454:Generated_Source\PSoC5/SPIM_1.c ****     #endif /* (SPIM_1_RX_SOFTWARE_BUF_ENABLED) */
 455:Generated_Source\PSoC5/SPIM_1.c **** 
 456:Generated_Source\PSoC5/SPIM_1.c ****     return(tmpStatus);
 565              		.loc 1 456 0
 566 000c FB79     		ldrb	r3, [r7, #7]	@ zero_extendqisi2
 457:Generated_Source\PSoC5/SPIM_1.c **** }
 567              		.loc 1 457 0
 568 000e 1846     		mov	r0, r3
 569 0010 0C37     		adds	r7, r7, #12
ARM GAS  C:\Users\z004e6he\AppData\Local\Temp\ccx6P8oF.s 			page 19


 570              		.cfi_def_cfa_offset 4
 571 0012 BD46     		mov	sp, r7
 572              		.cfi_def_cfa_register 13
 573              		@ sp needed
 574 0014 80BC     		pop	{r7}
 575              		.cfi_restore 7
 576              		.cfi_def_cfa_offset 0
 577 0016 7047     		bx	lr
 578              	.L35:
 579              		.align	2
 580              	.L34:
 581 0018 69650040 		.word	1073767785
 582              		.cfi_endproc
 583              	.LFE11:
 584              		.size	SPIM_1_ReadRxStatus, .-SPIM_1_ReadRxStatus
 585              		.section	.text.SPIM_1_WriteTxData,"ax",%progbits
 586              		.align	2
 587              		.global	SPIM_1_WriteTxData
 588              		.thumb
 589              		.thumb_func
 590              		.type	SPIM_1_WriteTxData, %function
 591              	SPIM_1_WriteTxData:
 592              	.LFB12:
 458:Generated_Source\PSoC5/SPIM_1.c **** 
 459:Generated_Source\PSoC5/SPIM_1.c **** 
 460:Generated_Source\PSoC5/SPIM_1.c **** /*******************************************************************************
 461:Generated_Source\PSoC5/SPIM_1.c **** * Function Name: SPIM_1_WriteTxData
 462:Generated_Source\PSoC5/SPIM_1.c **** ********************************************************************************
 463:Generated_Source\PSoC5/SPIM_1.c **** *
 464:Generated_Source\PSoC5/SPIM_1.c **** * Summary:
 465:Generated_Source\PSoC5/SPIM_1.c **** *  Write a byte of data to be sent across the SPI.
 466:Generated_Source\PSoC5/SPIM_1.c **** *
 467:Generated_Source\PSoC5/SPIM_1.c **** * Parameters:
 468:Generated_Source\PSoC5/SPIM_1.c **** *  txDataByte: The data value to send across the SPI.
 469:Generated_Source\PSoC5/SPIM_1.c **** *
 470:Generated_Source\PSoC5/SPIM_1.c **** * Return:
 471:Generated_Source\PSoC5/SPIM_1.c **** *  None.
 472:Generated_Source\PSoC5/SPIM_1.c **** *
 473:Generated_Source\PSoC5/SPIM_1.c **** * Global variables:
 474:Generated_Source\PSoC5/SPIM_1.c **** *  SPIM_1_txBufferWrite - used for the account of the bytes which
 475:Generated_Source\PSoC5/SPIM_1.c **** *  have been written down in the TX software buffer, modified every function
 476:Generated_Source\PSoC5/SPIM_1.c **** *  call if TX Software Buffer is used.
 477:Generated_Source\PSoC5/SPIM_1.c **** *  SPIM_1_txBufferRead - used for the account of the bytes which
 478:Generated_Source\PSoC5/SPIM_1.c **** *  have been read from the TX software buffer.
 479:Generated_Source\PSoC5/SPIM_1.c **** *  SPIM_1_txBuffer[SPIM_1_TX_BUFFER_SIZE] - used to store
 480:Generated_Source\PSoC5/SPIM_1.c **** *  data to sending, modified every function call if TX Software Buffer is used.
 481:Generated_Source\PSoC5/SPIM_1.c **** *
 482:Generated_Source\PSoC5/SPIM_1.c **** * Theory:
 483:Generated_Source\PSoC5/SPIM_1.c **** *  Allows the user to transmit any byte of data in a single transfer.
 484:Generated_Source\PSoC5/SPIM_1.c **** *
 485:Generated_Source\PSoC5/SPIM_1.c **** * Side Effects:
 486:Generated_Source\PSoC5/SPIM_1.c **** *  If this function is called again before the previous byte is finished then
 487:Generated_Source\PSoC5/SPIM_1.c **** *  the next byte will be appended to the transfer with no time between
 488:Generated_Source\PSoC5/SPIM_1.c **** *  the byte transfers. Clear Tx status register of the component.
 489:Generated_Source\PSoC5/SPIM_1.c **** *
 490:Generated_Source\PSoC5/SPIM_1.c **** * Reentrant:
 491:Generated_Source\PSoC5/SPIM_1.c **** *  No.
ARM GAS  C:\Users\z004e6he\AppData\Local\Temp\ccx6P8oF.s 			page 20


 492:Generated_Source\PSoC5/SPIM_1.c **** *
 493:Generated_Source\PSoC5/SPIM_1.c **** *******************************************************************************/
 494:Generated_Source\PSoC5/SPIM_1.c **** void SPIM_1_WriteTxData(uint16 txData) 
 495:Generated_Source\PSoC5/SPIM_1.c **** {
 593              		.loc 1 495 0
 594              		.cfi_startproc
 595              		@ args = 0, pretend = 0, frame = 8
 596              		@ frame_needed = 1, uses_anonymous_args = 0
 597              		@ link register save eliminated.
 598 0000 80B4     		push	{r7}
 599              		.cfi_def_cfa_offset 4
 600              		.cfi_offset 7, -4
 601 0002 83B0     		sub	sp, sp, #12
 602              		.cfi_def_cfa_offset 16
 603 0004 00AF     		add	r7, sp, #0
 604              		.cfi_def_cfa_register 7
 605 0006 0346     		mov	r3, r0
 606 0008 FB80     		strh	r3, [r7, #6]	@ movhi
 496:Generated_Source\PSoC5/SPIM_1.c ****     #if(SPIM_1_TX_SOFTWARE_BUF_ENABLED)
 497:Generated_Source\PSoC5/SPIM_1.c **** 
 498:Generated_Source\PSoC5/SPIM_1.c ****         uint8 tempStatus;
 499:Generated_Source\PSoC5/SPIM_1.c ****         uint8 tmpTxBufferRead;
 500:Generated_Source\PSoC5/SPIM_1.c **** 
 501:Generated_Source\PSoC5/SPIM_1.c ****         /* Block if TX buffer is FULL: don't overwrite */
 502:Generated_Source\PSoC5/SPIM_1.c ****         do
 503:Generated_Source\PSoC5/SPIM_1.c ****         {
 504:Generated_Source\PSoC5/SPIM_1.c ****             tmpTxBufferRead = SPIM_1_txBufferRead;
 505:Generated_Source\PSoC5/SPIM_1.c ****             if(0u == tmpTxBufferRead)
 506:Generated_Source\PSoC5/SPIM_1.c ****             {
 507:Generated_Source\PSoC5/SPIM_1.c ****                 tmpTxBufferRead = (SPIM_1_TX_BUFFER_SIZE - 1u);
 508:Generated_Source\PSoC5/SPIM_1.c ****             }
 509:Generated_Source\PSoC5/SPIM_1.c ****             else
 510:Generated_Source\PSoC5/SPIM_1.c ****             {
 511:Generated_Source\PSoC5/SPIM_1.c ****                 tmpTxBufferRead--;
 512:Generated_Source\PSoC5/SPIM_1.c ****             }
 513:Generated_Source\PSoC5/SPIM_1.c **** 
 514:Generated_Source\PSoC5/SPIM_1.c ****         }while(tmpTxBufferRead == SPIM_1_txBufferWrite);
 515:Generated_Source\PSoC5/SPIM_1.c **** 
 516:Generated_Source\PSoC5/SPIM_1.c ****         /* Disable TX interrupt to protect global veriables */
 517:Generated_Source\PSoC5/SPIM_1.c ****         SPIM_1_DisableTxInt();
 518:Generated_Source\PSoC5/SPIM_1.c **** 
 519:Generated_Source\PSoC5/SPIM_1.c ****         tempStatus = SPIM_1_GET_STATUS_TX(SPIM_1_swStatusTx);
 520:Generated_Source\PSoC5/SPIM_1.c ****         SPIM_1_swStatusTx = tempStatus;
 521:Generated_Source\PSoC5/SPIM_1.c **** 
 522:Generated_Source\PSoC5/SPIM_1.c **** 
 523:Generated_Source\PSoC5/SPIM_1.c ****         if((SPIM_1_txBufferRead == SPIM_1_txBufferWrite) &&
 524:Generated_Source\PSoC5/SPIM_1.c ****            (0u != (SPIM_1_swStatusTx & SPIM_1_STS_TX_FIFO_NOT_FULL)))
 525:Generated_Source\PSoC5/SPIM_1.c ****         {
 526:Generated_Source\PSoC5/SPIM_1.c ****             /* Put data element into the TX FIFO */
 527:Generated_Source\PSoC5/SPIM_1.c ****             CY_SET_REG16(SPIM_1_TXDATA_PTR, txData);
 528:Generated_Source\PSoC5/SPIM_1.c ****         }
 529:Generated_Source\PSoC5/SPIM_1.c ****         else
 530:Generated_Source\PSoC5/SPIM_1.c ****         {
 531:Generated_Source\PSoC5/SPIM_1.c ****             /* Add to the TX software buffer */
 532:Generated_Source\PSoC5/SPIM_1.c ****             SPIM_1_txBufferWrite++;
 533:Generated_Source\PSoC5/SPIM_1.c ****             if(SPIM_1_txBufferWrite >= SPIM_1_TX_BUFFER_SIZE)
 534:Generated_Source\PSoC5/SPIM_1.c ****             {
ARM GAS  C:\Users\z004e6he\AppData\Local\Temp\ccx6P8oF.s 			page 21


 535:Generated_Source\PSoC5/SPIM_1.c ****                 SPIM_1_txBufferWrite = 0u;
 536:Generated_Source\PSoC5/SPIM_1.c ****             }
 537:Generated_Source\PSoC5/SPIM_1.c **** 
 538:Generated_Source\PSoC5/SPIM_1.c ****             if(SPIM_1_txBufferWrite == SPIM_1_txBufferRead)
 539:Generated_Source\PSoC5/SPIM_1.c ****             {
 540:Generated_Source\PSoC5/SPIM_1.c ****                 SPIM_1_txBufferRead++;
 541:Generated_Source\PSoC5/SPIM_1.c ****                 if(SPIM_1_txBufferRead >= SPIM_1_TX_BUFFER_SIZE)
 542:Generated_Source\PSoC5/SPIM_1.c ****                 {
 543:Generated_Source\PSoC5/SPIM_1.c ****                     SPIM_1_txBufferRead = 0u;
 544:Generated_Source\PSoC5/SPIM_1.c ****                 }
 545:Generated_Source\PSoC5/SPIM_1.c ****                 SPIM_1_txBufferFull = 1u;
 546:Generated_Source\PSoC5/SPIM_1.c ****             }
 547:Generated_Source\PSoC5/SPIM_1.c **** 
 548:Generated_Source\PSoC5/SPIM_1.c ****             SPIM_1_txBuffer[SPIM_1_txBufferWrite] = txData;
 549:Generated_Source\PSoC5/SPIM_1.c **** 
 550:Generated_Source\PSoC5/SPIM_1.c ****             SPIM_1_TX_STATUS_MASK_REG |= SPIM_1_STS_TX_FIFO_NOT_FULL;
 551:Generated_Source\PSoC5/SPIM_1.c ****         }
 552:Generated_Source\PSoC5/SPIM_1.c **** 
 553:Generated_Source\PSoC5/SPIM_1.c ****         SPIM_1_EnableTxInt();
 554:Generated_Source\PSoC5/SPIM_1.c **** 
 555:Generated_Source\PSoC5/SPIM_1.c ****     #else
 556:Generated_Source\PSoC5/SPIM_1.c ****         /* Wait until TX FIFO has a place */
 557:Generated_Source\PSoC5/SPIM_1.c ****         while(0u == (SPIM_1_TX_STATUS_REG & SPIM_1_STS_TX_FIFO_NOT_FULL))
 607              		.loc 1 557 0
 608 000a 00BF     		nop
 609              	.L37:
 610              		.loc 1 557 0 is_stmt 0 discriminator 1
 611 000c 074B     		ldr	r3, .L38
 612 000e 1B78     		ldrb	r3, [r3]
 613 0010 DBB2     		uxtb	r3, r3
 614 0012 03F00403 		and	r3, r3, #4
 615 0016 002B     		cmp	r3, #0
 616 0018 F8D0     		beq	.L37
 558:Generated_Source\PSoC5/SPIM_1.c ****         {
 559:Generated_Source\PSoC5/SPIM_1.c ****         }
 560:Generated_Source\PSoC5/SPIM_1.c **** 
 561:Generated_Source\PSoC5/SPIM_1.c ****         /* Put data element into the TX FIFO */
 562:Generated_Source\PSoC5/SPIM_1.c ****         CY_SET_REG16(SPIM_1_TXDATA_PTR, txData);
 617              		.loc 1 562 0 is_stmt 1
 618 001a 054A     		ldr	r2, .L38+4
 619 001c FB88     		ldrh	r3, [r7, #6]	@ movhi
 620 001e 1380     		strh	r3, [r2]	@ movhi
 563:Generated_Source\PSoC5/SPIM_1.c **** 
 564:Generated_Source\PSoC5/SPIM_1.c ****     #endif /* (SPIM_1_TX_SOFTWARE_BUF_ENABLED) */
 565:Generated_Source\PSoC5/SPIM_1.c **** }
 621              		.loc 1 565 0
 622 0020 00BF     		nop
 623 0022 0C37     		adds	r7, r7, #12
 624              		.cfi_def_cfa_offset 4
 625 0024 BD46     		mov	sp, r7
 626              		.cfi_def_cfa_register 13
 627              		@ sp needed
 628 0026 80BC     		pop	{r7}
 629              		.cfi_restore 7
 630              		.cfi_def_cfa_offset 0
 631 0028 7047     		bx	lr
 632              	.L39:
ARM GAS  C:\Users\z004e6he\AppData\Local\Temp\ccx6P8oF.s 			page 22


 633 002a 00BF     		.align	2
 634              	.L38:
 635 002c 68650040 		.word	1073767784
 636 0030 48640040 		.word	1073767496
 637              		.cfi_endproc
 638              	.LFE12:
 639              		.size	SPIM_1_WriteTxData, .-SPIM_1_WriteTxData
 640              		.section	.text.SPIM_1_ReadRxData,"ax",%progbits
 641              		.align	2
 642              		.global	SPIM_1_ReadRxData
 643              		.thumb
 644              		.thumb_func
 645              		.type	SPIM_1_ReadRxData, %function
 646              	SPIM_1_ReadRxData:
 647              	.LFB13:
 566:Generated_Source\PSoC5/SPIM_1.c **** 
 567:Generated_Source\PSoC5/SPIM_1.c **** 
 568:Generated_Source\PSoC5/SPIM_1.c **** /*******************************************************************************
 569:Generated_Source\PSoC5/SPIM_1.c **** * Function Name: SPIM_1_ReadRxData
 570:Generated_Source\PSoC5/SPIM_1.c **** ********************************************************************************
 571:Generated_Source\PSoC5/SPIM_1.c **** *
 572:Generated_Source\PSoC5/SPIM_1.c **** * Summary:
 573:Generated_Source\PSoC5/SPIM_1.c **** *  Read the next byte of data received across the SPI.
 574:Generated_Source\PSoC5/SPIM_1.c **** *
 575:Generated_Source\PSoC5/SPIM_1.c **** * Parameters:
 576:Generated_Source\PSoC5/SPIM_1.c **** *  None.
 577:Generated_Source\PSoC5/SPIM_1.c **** *
 578:Generated_Source\PSoC5/SPIM_1.c **** * Return:
 579:Generated_Source\PSoC5/SPIM_1.c **** *  The next byte of data read from the FIFO.
 580:Generated_Source\PSoC5/SPIM_1.c **** *
 581:Generated_Source\PSoC5/SPIM_1.c **** * Global variables:
 582:Generated_Source\PSoC5/SPIM_1.c **** *  SPIM_1_rxBufferWrite - used for the account of the bytes which
 583:Generated_Source\PSoC5/SPIM_1.c **** *  have been written down in the RX software buffer.
 584:Generated_Source\PSoC5/SPIM_1.c **** *  SPIM_1_rxBufferRead - used for the account of the bytes which
 585:Generated_Source\PSoC5/SPIM_1.c **** *  have been read from the RX software buffer, modified every function
 586:Generated_Source\PSoC5/SPIM_1.c **** *  call if RX Software Buffer is used.
 587:Generated_Source\PSoC5/SPIM_1.c **** *  SPIM_1_rxBuffer[SPIM_1_RX_BUFFER_SIZE] - used to store
 588:Generated_Source\PSoC5/SPIM_1.c **** *  received data.
 589:Generated_Source\PSoC5/SPIM_1.c **** *
 590:Generated_Source\PSoC5/SPIM_1.c **** * Theory:
 591:Generated_Source\PSoC5/SPIM_1.c **** *  Allows the user to read a byte of data received.
 592:Generated_Source\PSoC5/SPIM_1.c **** *
 593:Generated_Source\PSoC5/SPIM_1.c **** * Side Effects:
 594:Generated_Source\PSoC5/SPIM_1.c **** *  Will return invalid data if the FIFO is empty. The user should Call
 595:Generated_Source\PSoC5/SPIM_1.c **** *  GetRxBufferSize() and if it returns a non-zero value then it is safe to call
 596:Generated_Source\PSoC5/SPIM_1.c **** *  ReadByte() function.
 597:Generated_Source\PSoC5/SPIM_1.c **** *
 598:Generated_Source\PSoC5/SPIM_1.c **** * Reentrant:
 599:Generated_Source\PSoC5/SPIM_1.c **** *  No.
 600:Generated_Source\PSoC5/SPIM_1.c **** *
 601:Generated_Source\PSoC5/SPIM_1.c **** *******************************************************************************/
 602:Generated_Source\PSoC5/SPIM_1.c **** uint16 SPIM_1_ReadRxData(void) 
 603:Generated_Source\PSoC5/SPIM_1.c **** {
 648              		.loc 1 603 0
 649              		.cfi_startproc
 650              		@ args = 0, pretend = 0, frame = 8
 651              		@ frame_needed = 1, uses_anonymous_args = 0
ARM GAS  C:\Users\z004e6he\AppData\Local\Temp\ccx6P8oF.s 			page 23


 652              		@ link register save eliminated.
 653 0000 80B4     		push	{r7}
 654              		.cfi_def_cfa_offset 4
 655              		.cfi_offset 7, -4
 656 0002 83B0     		sub	sp, sp, #12
 657              		.cfi_def_cfa_offset 16
 658 0004 00AF     		add	r7, sp, #0
 659              		.cfi_def_cfa_register 7
 604:Generated_Source\PSoC5/SPIM_1.c ****     uint16 rxData;
 605:Generated_Source\PSoC5/SPIM_1.c **** 
 606:Generated_Source\PSoC5/SPIM_1.c ****     #if(SPIM_1_RX_SOFTWARE_BUF_ENABLED)
 607:Generated_Source\PSoC5/SPIM_1.c **** 
 608:Generated_Source\PSoC5/SPIM_1.c ****         /* Disable RX interrupt to protect global veriables */
 609:Generated_Source\PSoC5/SPIM_1.c ****         SPIM_1_DisableRxInt();
 610:Generated_Source\PSoC5/SPIM_1.c **** 
 611:Generated_Source\PSoC5/SPIM_1.c ****         if(SPIM_1_rxBufferRead != SPIM_1_rxBufferWrite)
 612:Generated_Source\PSoC5/SPIM_1.c ****         {
 613:Generated_Source\PSoC5/SPIM_1.c ****             if(0u == SPIM_1_rxBufferFull)
 614:Generated_Source\PSoC5/SPIM_1.c ****             {
 615:Generated_Source\PSoC5/SPIM_1.c ****                 SPIM_1_rxBufferRead++;
 616:Generated_Source\PSoC5/SPIM_1.c ****                 if(SPIM_1_rxBufferRead >= SPIM_1_RX_BUFFER_SIZE)
 617:Generated_Source\PSoC5/SPIM_1.c ****                 {
 618:Generated_Source\PSoC5/SPIM_1.c ****                     SPIM_1_rxBufferRead = 0u;
 619:Generated_Source\PSoC5/SPIM_1.c ****                 }
 620:Generated_Source\PSoC5/SPIM_1.c ****             }
 621:Generated_Source\PSoC5/SPIM_1.c ****             else
 622:Generated_Source\PSoC5/SPIM_1.c ****             {
 623:Generated_Source\PSoC5/SPIM_1.c ****                 SPIM_1_rxBufferFull = 0u;
 624:Generated_Source\PSoC5/SPIM_1.c ****             }
 625:Generated_Source\PSoC5/SPIM_1.c ****         }
 626:Generated_Source\PSoC5/SPIM_1.c **** 
 627:Generated_Source\PSoC5/SPIM_1.c ****         rxData = SPIM_1_rxBuffer[SPIM_1_rxBufferRead];
 628:Generated_Source\PSoC5/SPIM_1.c **** 
 629:Generated_Source\PSoC5/SPIM_1.c ****         SPIM_1_EnableRxInt();
 630:Generated_Source\PSoC5/SPIM_1.c **** 
 631:Generated_Source\PSoC5/SPIM_1.c ****     #else
 632:Generated_Source\PSoC5/SPIM_1.c **** 
 633:Generated_Source\PSoC5/SPIM_1.c ****         rxData = CY_GET_REG16(SPIM_1_RXDATA_PTR);
 660              		.loc 1 633 0
 661 0006 044B     		ldr	r3, .L42
 662 0008 1B88     		ldrh	r3, [r3]	@ movhi
 663 000a FB80     		strh	r3, [r7, #6]	@ movhi
 634:Generated_Source\PSoC5/SPIM_1.c **** 
 635:Generated_Source\PSoC5/SPIM_1.c ****     #endif /* (SPIM_1_RX_SOFTWARE_BUF_ENABLED) */
 636:Generated_Source\PSoC5/SPIM_1.c **** 
 637:Generated_Source\PSoC5/SPIM_1.c ****     return(rxData);
 664              		.loc 1 637 0
 665 000c FB88     		ldrh	r3, [r7, #6]
 638:Generated_Source\PSoC5/SPIM_1.c **** }
 666              		.loc 1 638 0
 667 000e 1846     		mov	r0, r3
 668 0010 0C37     		adds	r7, r7, #12
 669              		.cfi_def_cfa_offset 4
 670 0012 BD46     		mov	sp, r7
 671              		.cfi_def_cfa_register 13
 672              		@ sp needed
 673 0014 80BC     		pop	{r7}
ARM GAS  C:\Users\z004e6he\AppData\Local\Temp\ccx6P8oF.s 			page 24


 674              		.cfi_restore 7
 675              		.cfi_def_cfa_offset 0
 676 0016 7047     		bx	lr
 677              	.L43:
 678              		.align	2
 679              	.L42:
 680 0018 58640040 		.word	1073767512
 681              		.cfi_endproc
 682              	.LFE13:
 683              		.size	SPIM_1_ReadRxData, .-SPIM_1_ReadRxData
 684              		.section	.text.SPIM_1_GetRxBufferSize,"ax",%progbits
 685              		.align	2
 686              		.global	SPIM_1_GetRxBufferSize
 687              		.thumb
 688              		.thumb_func
 689              		.type	SPIM_1_GetRxBufferSize, %function
 690              	SPIM_1_GetRxBufferSize:
 691              	.LFB14:
 639:Generated_Source\PSoC5/SPIM_1.c **** 
 640:Generated_Source\PSoC5/SPIM_1.c **** 
 641:Generated_Source\PSoC5/SPIM_1.c **** /*******************************************************************************
 642:Generated_Source\PSoC5/SPIM_1.c **** * Function Name: SPIM_1_GetRxBufferSize
 643:Generated_Source\PSoC5/SPIM_1.c **** ********************************************************************************
 644:Generated_Source\PSoC5/SPIM_1.c **** *
 645:Generated_Source\PSoC5/SPIM_1.c **** * Summary:
 646:Generated_Source\PSoC5/SPIM_1.c **** *  Returns the number of bytes/words of data currently held in the RX buffer.
 647:Generated_Source\PSoC5/SPIM_1.c **** *  If RX Software Buffer not used then function return 0 if FIFO empty or 1 if
 648:Generated_Source\PSoC5/SPIM_1.c **** *  FIFO not empty. In another case function return size of RX Software Buffer.
 649:Generated_Source\PSoC5/SPIM_1.c **** *
 650:Generated_Source\PSoC5/SPIM_1.c **** * Parameters:
 651:Generated_Source\PSoC5/SPIM_1.c **** *  None.
 652:Generated_Source\PSoC5/SPIM_1.c **** *
 653:Generated_Source\PSoC5/SPIM_1.c **** * Return:
 654:Generated_Source\PSoC5/SPIM_1.c **** *  Integer count of the number of bytes/words in the RX buffer.
 655:Generated_Source\PSoC5/SPIM_1.c **** *
 656:Generated_Source\PSoC5/SPIM_1.c **** * Global variables:
 657:Generated_Source\PSoC5/SPIM_1.c **** *  SPIM_1_rxBufferWrite - used for the account of the bytes which
 658:Generated_Source\PSoC5/SPIM_1.c **** *  have been written down in the RX software buffer.
 659:Generated_Source\PSoC5/SPIM_1.c **** *  SPIM_1_rxBufferRead - used for the account of the bytes which
 660:Generated_Source\PSoC5/SPIM_1.c **** *  have been read from the RX software buffer.
 661:Generated_Source\PSoC5/SPIM_1.c **** *
 662:Generated_Source\PSoC5/SPIM_1.c **** * Side Effects:
 663:Generated_Source\PSoC5/SPIM_1.c **** *  Clear status register of the component.
 664:Generated_Source\PSoC5/SPIM_1.c **** *
 665:Generated_Source\PSoC5/SPIM_1.c **** *******************************************************************************/
 666:Generated_Source\PSoC5/SPIM_1.c **** uint8 SPIM_1_GetRxBufferSize(void) 
 667:Generated_Source\PSoC5/SPIM_1.c **** {
 692              		.loc 1 667 0
 693              		.cfi_startproc
 694              		@ args = 0, pretend = 0, frame = 8
 695              		@ frame_needed = 1, uses_anonymous_args = 0
 696              		@ link register save eliminated.
 697 0000 80B4     		push	{r7}
 698              		.cfi_def_cfa_offset 4
 699              		.cfi_offset 7, -4
 700 0002 83B0     		sub	sp, sp, #12
 701              		.cfi_def_cfa_offset 16
ARM GAS  C:\Users\z004e6he\AppData\Local\Temp\ccx6P8oF.s 			page 25


 702 0004 00AF     		add	r7, sp, #0
 703              		.cfi_def_cfa_register 7
 668:Generated_Source\PSoC5/SPIM_1.c ****     uint8 size;
 669:Generated_Source\PSoC5/SPIM_1.c **** 
 670:Generated_Source\PSoC5/SPIM_1.c ****     #if(SPIM_1_RX_SOFTWARE_BUF_ENABLED)
 671:Generated_Source\PSoC5/SPIM_1.c **** 
 672:Generated_Source\PSoC5/SPIM_1.c ****         /* Disable RX interrupt to protect global veriables */
 673:Generated_Source\PSoC5/SPIM_1.c ****         SPIM_1_DisableRxInt();
 674:Generated_Source\PSoC5/SPIM_1.c **** 
 675:Generated_Source\PSoC5/SPIM_1.c ****         if(SPIM_1_rxBufferRead == SPIM_1_rxBufferWrite)
 676:Generated_Source\PSoC5/SPIM_1.c ****         {
 677:Generated_Source\PSoC5/SPIM_1.c ****             size = 0u;
 678:Generated_Source\PSoC5/SPIM_1.c ****         }
 679:Generated_Source\PSoC5/SPIM_1.c ****         else if(SPIM_1_rxBufferRead < SPIM_1_rxBufferWrite)
 680:Generated_Source\PSoC5/SPIM_1.c ****         {
 681:Generated_Source\PSoC5/SPIM_1.c ****             size = (SPIM_1_rxBufferWrite - SPIM_1_rxBufferRead);
 682:Generated_Source\PSoC5/SPIM_1.c ****         }
 683:Generated_Source\PSoC5/SPIM_1.c ****         else
 684:Generated_Source\PSoC5/SPIM_1.c ****         {
 685:Generated_Source\PSoC5/SPIM_1.c ****             size = (SPIM_1_RX_BUFFER_SIZE - SPIM_1_rxBufferRead) + SPIM_1_rxBufferWrite;
 686:Generated_Source\PSoC5/SPIM_1.c ****         }
 687:Generated_Source\PSoC5/SPIM_1.c **** 
 688:Generated_Source\PSoC5/SPIM_1.c ****         SPIM_1_EnableRxInt();
 689:Generated_Source\PSoC5/SPIM_1.c **** 
 690:Generated_Source\PSoC5/SPIM_1.c ****     #else
 691:Generated_Source\PSoC5/SPIM_1.c **** 
 692:Generated_Source\PSoC5/SPIM_1.c ****         /* We can only know if there is data in the RX FIFO */
 693:Generated_Source\PSoC5/SPIM_1.c ****         size = (0u != (SPIM_1_RX_STATUS_REG & SPIM_1_STS_RX_FIFO_NOT_EMPTY)) ? 1u : 0u;
 704              		.loc 1 693 0
 705 0006 084B     		ldr	r3, .L48
 706 0008 1B78     		ldrb	r3, [r3]
 707 000a DBB2     		uxtb	r3, r3
 708 000c 03F02003 		and	r3, r3, #32
 709 0010 002B     		cmp	r3, #0
 710 0012 01D0     		beq	.L45
 711              		.loc 1 693 0 is_stmt 0 discriminator 1
 712 0014 0123     		movs	r3, #1
 713 0016 00E0     		b	.L46
 714              	.L45:
 715              		.loc 1 693 0 discriminator 2
 716 0018 0023     		movs	r3, #0
 717              	.L46:
 718              		.loc 1 693 0 discriminator 4
 719 001a FB71     		strb	r3, [r7, #7]
 694:Generated_Source\PSoC5/SPIM_1.c **** 
 695:Generated_Source\PSoC5/SPIM_1.c ****     #endif /* (SPIM_1_TX_SOFTWARE_BUF_ENABLED) */
 696:Generated_Source\PSoC5/SPIM_1.c **** 
 697:Generated_Source\PSoC5/SPIM_1.c ****     return(size);
 720              		.loc 1 697 0 is_stmt 1 discriminator 4
 721 001c FB79     		ldrb	r3, [r7, #7]	@ zero_extendqisi2
 698:Generated_Source\PSoC5/SPIM_1.c **** }
 722              		.loc 1 698 0 discriminator 4
 723 001e 1846     		mov	r0, r3
 724 0020 0C37     		adds	r7, r7, #12
 725              		.cfi_def_cfa_offset 4
 726 0022 BD46     		mov	sp, r7
 727              		.cfi_def_cfa_register 13
ARM GAS  C:\Users\z004e6he\AppData\Local\Temp\ccx6P8oF.s 			page 26


 728              		@ sp needed
 729 0024 80BC     		pop	{r7}
 730              		.cfi_restore 7
 731              		.cfi_def_cfa_offset 0
 732 0026 7047     		bx	lr
 733              	.L49:
 734              		.align	2
 735              	.L48:
 736 0028 69650040 		.word	1073767785
 737              		.cfi_endproc
 738              	.LFE14:
 739              		.size	SPIM_1_GetRxBufferSize, .-SPIM_1_GetRxBufferSize
 740              		.section	.text.SPIM_1_GetTxBufferSize,"ax",%progbits
 741              		.align	2
 742              		.global	SPIM_1_GetTxBufferSize
 743              		.thumb
 744              		.thumb_func
 745              		.type	SPIM_1_GetTxBufferSize, %function
 746              	SPIM_1_GetTxBufferSize:
 747              	.LFB15:
 699:Generated_Source\PSoC5/SPIM_1.c **** 
 700:Generated_Source\PSoC5/SPIM_1.c **** 
 701:Generated_Source\PSoC5/SPIM_1.c **** /*******************************************************************************
 702:Generated_Source\PSoC5/SPIM_1.c **** * Function Name: SPIM_1_GetTxBufferSize
 703:Generated_Source\PSoC5/SPIM_1.c **** ********************************************************************************
 704:Generated_Source\PSoC5/SPIM_1.c **** *
 705:Generated_Source\PSoC5/SPIM_1.c **** * Summary:
 706:Generated_Source\PSoC5/SPIM_1.c **** *  Returns the number of bytes/words of data currently held in the TX buffer.
 707:Generated_Source\PSoC5/SPIM_1.c **** *  If TX Software Buffer not used then function return 0 - if FIFO empty, 1 - if
 708:Generated_Source\PSoC5/SPIM_1.c **** *  FIFO not full, 4 - if FIFO full. In another case function return size of TX
 709:Generated_Source\PSoC5/SPIM_1.c **** *  Software Buffer.
 710:Generated_Source\PSoC5/SPIM_1.c **** *
 711:Generated_Source\PSoC5/SPIM_1.c **** * Parameters:
 712:Generated_Source\PSoC5/SPIM_1.c **** *  None.
 713:Generated_Source\PSoC5/SPIM_1.c **** *
 714:Generated_Source\PSoC5/SPIM_1.c **** * Return:
 715:Generated_Source\PSoC5/SPIM_1.c **** *  Integer count of the number of bytes/words in the TX buffer.
 716:Generated_Source\PSoC5/SPIM_1.c **** *
 717:Generated_Source\PSoC5/SPIM_1.c **** * Global variables:
 718:Generated_Source\PSoC5/SPIM_1.c **** *  SPIM_1_txBufferWrite - used for the account of the bytes which
 719:Generated_Source\PSoC5/SPIM_1.c **** *  have been written down in the TX software buffer.
 720:Generated_Source\PSoC5/SPIM_1.c **** *  SPIM_1_txBufferRead - used for the account of the bytes which
 721:Generated_Source\PSoC5/SPIM_1.c **** *  have been read from the TX software buffer.
 722:Generated_Source\PSoC5/SPIM_1.c **** *
 723:Generated_Source\PSoC5/SPIM_1.c **** * Side Effects:
 724:Generated_Source\PSoC5/SPIM_1.c **** *  Clear status register of the component.
 725:Generated_Source\PSoC5/SPIM_1.c **** *
 726:Generated_Source\PSoC5/SPIM_1.c **** *******************************************************************************/
 727:Generated_Source\PSoC5/SPIM_1.c **** uint8  SPIM_1_GetTxBufferSize(void) 
 728:Generated_Source\PSoC5/SPIM_1.c **** {
 748              		.loc 1 728 0
 749              		.cfi_startproc
 750              		@ args = 0, pretend = 0, frame = 8
 751              		@ frame_needed = 1, uses_anonymous_args = 0
 752              		@ link register save eliminated.
 753 0000 80B4     		push	{r7}
 754              		.cfi_def_cfa_offset 4
ARM GAS  C:\Users\z004e6he\AppData\Local\Temp\ccx6P8oF.s 			page 27


 755              		.cfi_offset 7, -4
 756 0002 83B0     		sub	sp, sp, #12
 757              		.cfi_def_cfa_offset 16
 758 0004 00AF     		add	r7, sp, #0
 759              		.cfi_def_cfa_register 7
 729:Generated_Source\PSoC5/SPIM_1.c ****     uint8 size;
 730:Generated_Source\PSoC5/SPIM_1.c **** 
 731:Generated_Source\PSoC5/SPIM_1.c ****     #if(SPIM_1_TX_SOFTWARE_BUF_ENABLED)
 732:Generated_Source\PSoC5/SPIM_1.c ****         /* Disable TX interrupt to protect global veriables */
 733:Generated_Source\PSoC5/SPIM_1.c ****         SPIM_1_DisableTxInt();
 734:Generated_Source\PSoC5/SPIM_1.c **** 
 735:Generated_Source\PSoC5/SPIM_1.c ****         if(SPIM_1_txBufferRead == SPIM_1_txBufferWrite)
 736:Generated_Source\PSoC5/SPIM_1.c ****         {
 737:Generated_Source\PSoC5/SPIM_1.c ****             size = 0u;
 738:Generated_Source\PSoC5/SPIM_1.c ****         }
 739:Generated_Source\PSoC5/SPIM_1.c ****         else if(SPIM_1_txBufferRead < SPIM_1_txBufferWrite)
 740:Generated_Source\PSoC5/SPIM_1.c ****         {
 741:Generated_Source\PSoC5/SPIM_1.c ****             size = (SPIM_1_txBufferWrite - SPIM_1_txBufferRead);
 742:Generated_Source\PSoC5/SPIM_1.c ****         }
 743:Generated_Source\PSoC5/SPIM_1.c ****         else
 744:Generated_Source\PSoC5/SPIM_1.c ****         {
 745:Generated_Source\PSoC5/SPIM_1.c ****             size = (SPIM_1_TX_BUFFER_SIZE - SPIM_1_txBufferRead) + SPIM_1_txBufferWrite;
 746:Generated_Source\PSoC5/SPIM_1.c ****         }
 747:Generated_Source\PSoC5/SPIM_1.c **** 
 748:Generated_Source\PSoC5/SPIM_1.c ****         SPIM_1_EnableTxInt();
 749:Generated_Source\PSoC5/SPIM_1.c **** 
 750:Generated_Source\PSoC5/SPIM_1.c ****     #else
 751:Generated_Source\PSoC5/SPIM_1.c **** 
 752:Generated_Source\PSoC5/SPIM_1.c ****         size = SPIM_1_TX_STATUS_REG;
 760              		.loc 1 752 0
 761 0006 0D4B     		ldr	r3, .L55
 762 0008 1B78     		ldrb	r3, [r3]
 763 000a FB71     		strb	r3, [r7, #7]
 753:Generated_Source\PSoC5/SPIM_1.c **** 
 754:Generated_Source\PSoC5/SPIM_1.c ****         if(0u != (size & SPIM_1_STS_TX_FIFO_EMPTY))
 764              		.loc 1 754 0
 765 000c FB79     		ldrb	r3, [r7, #7]	@ zero_extendqisi2
 766 000e 03F00203 		and	r3, r3, #2
 767 0012 002B     		cmp	r3, #0
 768 0014 02D0     		beq	.L51
 755:Generated_Source\PSoC5/SPIM_1.c ****         {
 756:Generated_Source\PSoC5/SPIM_1.c ****             size = 0u;
 769              		.loc 1 756 0
 770 0016 0023     		movs	r3, #0
 771 0018 FB71     		strb	r3, [r7, #7]
 772 001a 09E0     		b	.L52
 773              	.L51:
 757:Generated_Source\PSoC5/SPIM_1.c ****         }
 758:Generated_Source\PSoC5/SPIM_1.c ****         else if(0u != (size & SPIM_1_STS_TX_FIFO_NOT_FULL))
 774              		.loc 1 758 0
 775 001c FB79     		ldrb	r3, [r7, #7]	@ zero_extendqisi2
 776 001e 03F00403 		and	r3, r3, #4
 777 0022 002B     		cmp	r3, #0
 778 0024 02D0     		beq	.L53
 759:Generated_Source\PSoC5/SPIM_1.c ****         {
 760:Generated_Source\PSoC5/SPIM_1.c ****             size = 1u;
 779              		.loc 1 760 0
ARM GAS  C:\Users\z004e6he\AppData\Local\Temp\ccx6P8oF.s 			page 28


 780 0026 0123     		movs	r3, #1
 781 0028 FB71     		strb	r3, [r7, #7]
 782 002a 01E0     		b	.L52
 783              	.L53:
 761:Generated_Source\PSoC5/SPIM_1.c ****         }
 762:Generated_Source\PSoC5/SPIM_1.c ****         else
 763:Generated_Source\PSoC5/SPIM_1.c ****         {
 764:Generated_Source\PSoC5/SPIM_1.c ****             size = SPIM_1_FIFO_SIZE;
 784              		.loc 1 764 0
 785 002c 0423     		movs	r3, #4
 786 002e FB71     		strb	r3, [r7, #7]
 787              	.L52:
 765:Generated_Source\PSoC5/SPIM_1.c ****         }
 766:Generated_Source\PSoC5/SPIM_1.c **** 
 767:Generated_Source\PSoC5/SPIM_1.c ****     #endif /* (SPIM_1_TX_SOFTWARE_BUF_ENABLED) */
 768:Generated_Source\PSoC5/SPIM_1.c **** 
 769:Generated_Source\PSoC5/SPIM_1.c ****     return(size);
 788              		.loc 1 769 0
 789 0030 FB79     		ldrb	r3, [r7, #7]	@ zero_extendqisi2
 770:Generated_Source\PSoC5/SPIM_1.c **** }
 790              		.loc 1 770 0
 791 0032 1846     		mov	r0, r3
 792 0034 0C37     		adds	r7, r7, #12
 793              		.cfi_def_cfa_offset 4
 794 0036 BD46     		mov	sp, r7
 795              		.cfi_def_cfa_register 13
 796              		@ sp needed
 797 0038 80BC     		pop	{r7}
 798              		.cfi_restore 7
 799              		.cfi_def_cfa_offset 0
 800 003a 7047     		bx	lr
 801              	.L56:
 802              		.align	2
 803              	.L55:
 804 003c 68650040 		.word	1073767784
 805              		.cfi_endproc
 806              	.LFE15:
 807              		.size	SPIM_1_GetTxBufferSize, .-SPIM_1_GetTxBufferSize
 808              		.section	.text.SPIM_1_ClearRxBuffer,"ax",%progbits
 809              		.align	2
 810              		.global	SPIM_1_ClearRxBuffer
 811              		.thumb
 812              		.thumb_func
 813              		.type	SPIM_1_ClearRxBuffer, %function
 814              	SPIM_1_ClearRxBuffer:
 815              	.LFB16:
 771:Generated_Source\PSoC5/SPIM_1.c **** 
 772:Generated_Source\PSoC5/SPIM_1.c **** 
 773:Generated_Source\PSoC5/SPIM_1.c **** /*******************************************************************************
 774:Generated_Source\PSoC5/SPIM_1.c **** * Function Name: SPIM_1_ClearRxBuffer
 775:Generated_Source\PSoC5/SPIM_1.c **** ********************************************************************************
 776:Generated_Source\PSoC5/SPIM_1.c **** *
 777:Generated_Source\PSoC5/SPIM_1.c **** * Summary:
 778:Generated_Source\PSoC5/SPIM_1.c **** *  Clear the RX RAM buffer by setting the read and write pointers both to zero.
 779:Generated_Source\PSoC5/SPIM_1.c **** *
 780:Generated_Source\PSoC5/SPIM_1.c **** * Parameters:
 781:Generated_Source\PSoC5/SPIM_1.c **** *  None.
ARM GAS  C:\Users\z004e6he\AppData\Local\Temp\ccx6P8oF.s 			page 29


 782:Generated_Source\PSoC5/SPIM_1.c **** *
 783:Generated_Source\PSoC5/SPIM_1.c **** * Return:
 784:Generated_Source\PSoC5/SPIM_1.c **** *  None.
 785:Generated_Source\PSoC5/SPIM_1.c **** *
 786:Generated_Source\PSoC5/SPIM_1.c **** * Global variables:
 787:Generated_Source\PSoC5/SPIM_1.c **** *  SPIM_1_rxBufferWrite - used for the account of the bytes which
 788:Generated_Source\PSoC5/SPIM_1.c **** *  have been written down in the RX software buffer, modified every function
 789:Generated_Source\PSoC5/SPIM_1.c **** *  call - resets to zero.
 790:Generated_Source\PSoC5/SPIM_1.c **** *  SPIM_1_rxBufferRead - used for the account of the bytes which
 791:Generated_Source\PSoC5/SPIM_1.c **** *  have been read from the RX software buffer, modified every function call -
 792:Generated_Source\PSoC5/SPIM_1.c **** *  resets to zero.
 793:Generated_Source\PSoC5/SPIM_1.c **** *
 794:Generated_Source\PSoC5/SPIM_1.c **** * Theory:
 795:Generated_Source\PSoC5/SPIM_1.c **** *  Setting the pointers to zero makes the system believe there is no data to
 796:Generated_Source\PSoC5/SPIM_1.c **** *  read and writing will resume at address 0 overwriting any data that may have
 797:Generated_Source\PSoC5/SPIM_1.c **** *  remained in the RAM.
 798:Generated_Source\PSoC5/SPIM_1.c **** *
 799:Generated_Source\PSoC5/SPIM_1.c **** * Side Effects:
 800:Generated_Source\PSoC5/SPIM_1.c **** *  Any received data not read from the RAM buffer will be lost when overwritten.
 801:Generated_Source\PSoC5/SPIM_1.c **** *
 802:Generated_Source\PSoC5/SPIM_1.c **** * Reentrant:
 803:Generated_Source\PSoC5/SPIM_1.c **** *  No.
 804:Generated_Source\PSoC5/SPIM_1.c **** *
 805:Generated_Source\PSoC5/SPIM_1.c **** *******************************************************************************/
 806:Generated_Source\PSoC5/SPIM_1.c **** void SPIM_1_ClearRxBuffer(void) 
 807:Generated_Source\PSoC5/SPIM_1.c **** {
 816              		.loc 1 807 0
 817              		.cfi_startproc
 818              		@ args = 0, pretend = 0, frame = 0
 819              		@ frame_needed = 1, uses_anonymous_args = 0
 820              		@ link register save eliminated.
 821 0000 80B4     		push	{r7}
 822              		.cfi_def_cfa_offset 4
 823              		.cfi_offset 7, -4
 824 0002 00AF     		add	r7, sp, #0
 825              		.cfi_def_cfa_register 7
 808:Generated_Source\PSoC5/SPIM_1.c ****     /* Clear Hardware RX FIFO */
 809:Generated_Source\PSoC5/SPIM_1.c ****     while(0u !=(SPIM_1_RX_STATUS_REG & SPIM_1_STS_RX_FIFO_NOT_EMPTY))
 826              		.loc 1 809 0
 827 0004 01E0     		b	.L58
 828              	.L59:
 810:Generated_Source\PSoC5/SPIM_1.c ****     {
 811:Generated_Source\PSoC5/SPIM_1.c ****         (void) CY_GET_REG16(SPIM_1_RXDATA_PTR);
 829              		.loc 1 811 0
 830 0006 064B     		ldr	r3, .L60
 831 0008 1B88     		ldrh	r3, [r3]	@ movhi
 832              	.L58:
 809:Generated_Source\PSoC5/SPIM_1.c ****     {
 833              		.loc 1 809 0
 834 000a 064B     		ldr	r3, .L60+4
 835 000c 1B78     		ldrb	r3, [r3]
 836 000e DBB2     		uxtb	r3, r3
 837 0010 03F02003 		and	r3, r3, #32
 838 0014 002B     		cmp	r3, #0
 839 0016 F6D1     		bne	.L59
 812:Generated_Source\PSoC5/SPIM_1.c ****     }
 813:Generated_Source\PSoC5/SPIM_1.c **** 
ARM GAS  C:\Users\z004e6he\AppData\Local\Temp\ccx6P8oF.s 			page 30


 814:Generated_Source\PSoC5/SPIM_1.c ****     #if(SPIM_1_RX_SOFTWARE_BUF_ENABLED)
 815:Generated_Source\PSoC5/SPIM_1.c ****         /* Disable RX interrupt to protect global veriables */
 816:Generated_Source\PSoC5/SPIM_1.c ****         SPIM_1_DisableRxInt();
 817:Generated_Source\PSoC5/SPIM_1.c **** 
 818:Generated_Source\PSoC5/SPIM_1.c ****         SPIM_1_rxBufferFull  = 0u;
 819:Generated_Source\PSoC5/SPIM_1.c ****         SPIM_1_rxBufferRead  = 0u;
 820:Generated_Source\PSoC5/SPIM_1.c ****         SPIM_1_rxBufferWrite = 0u;
 821:Generated_Source\PSoC5/SPIM_1.c **** 
 822:Generated_Source\PSoC5/SPIM_1.c ****         SPIM_1_EnableRxInt();
 823:Generated_Source\PSoC5/SPIM_1.c ****     #endif /* (SPIM_1_RX_SOFTWARE_BUF_ENABLED) */
 824:Generated_Source\PSoC5/SPIM_1.c **** }
 840              		.loc 1 824 0
 841 0018 00BF     		nop
 842 001a BD46     		mov	sp, r7
 843              		.cfi_def_cfa_register 13
 844              		@ sp needed
 845 001c 80BC     		pop	{r7}
 846              		.cfi_restore 7
 847              		.cfi_def_cfa_offset 0
 848 001e 7047     		bx	lr
 849              	.L61:
 850              		.align	2
 851              	.L60:
 852 0020 58640040 		.word	1073767512
 853 0024 69650040 		.word	1073767785
 854              		.cfi_endproc
 855              	.LFE16:
 856              		.size	SPIM_1_ClearRxBuffer, .-SPIM_1_ClearRxBuffer
 857              		.section	.text.SPIM_1_ClearTxBuffer,"ax",%progbits
 858              		.align	2
 859              		.global	SPIM_1_ClearTxBuffer
 860              		.thumb
 861              		.thumb_func
 862              		.type	SPIM_1_ClearTxBuffer, %function
 863              	SPIM_1_ClearTxBuffer:
 864              	.LFB17:
 825:Generated_Source\PSoC5/SPIM_1.c **** 
 826:Generated_Source\PSoC5/SPIM_1.c **** 
 827:Generated_Source\PSoC5/SPIM_1.c **** /*******************************************************************************
 828:Generated_Source\PSoC5/SPIM_1.c **** * Function Name: SPIM_1_ClearTxBuffer
 829:Generated_Source\PSoC5/SPIM_1.c **** ********************************************************************************
 830:Generated_Source\PSoC5/SPIM_1.c **** *
 831:Generated_Source\PSoC5/SPIM_1.c **** * Summary:
 832:Generated_Source\PSoC5/SPIM_1.c **** *  Clear the TX RAM buffer by setting the read and write pointers both to zero.
 833:Generated_Source\PSoC5/SPIM_1.c **** *
 834:Generated_Source\PSoC5/SPIM_1.c **** * Parameters:
 835:Generated_Source\PSoC5/SPIM_1.c **** *  None.
 836:Generated_Source\PSoC5/SPIM_1.c **** *
 837:Generated_Source\PSoC5/SPIM_1.c **** * Return:
 838:Generated_Source\PSoC5/SPIM_1.c **** *  None.
 839:Generated_Source\PSoC5/SPIM_1.c **** *
 840:Generated_Source\PSoC5/SPIM_1.c **** * Global variables:
 841:Generated_Source\PSoC5/SPIM_1.c **** *  SPIM_1_txBufferWrite - used for the account of the bytes which
 842:Generated_Source\PSoC5/SPIM_1.c **** *  have been written down in the TX software buffer, modified every function
 843:Generated_Source\PSoC5/SPIM_1.c **** *  call - resets to zero.
 844:Generated_Source\PSoC5/SPIM_1.c **** *  SPIM_1_txBufferRead - used for the account of the bytes which
 845:Generated_Source\PSoC5/SPIM_1.c **** *  have been read from the TX software buffer, modified every function call -
ARM GAS  C:\Users\z004e6he\AppData\Local\Temp\ccx6P8oF.s 			page 31


 846:Generated_Source\PSoC5/SPIM_1.c **** *  resets to zero.
 847:Generated_Source\PSoC5/SPIM_1.c **** *
 848:Generated_Source\PSoC5/SPIM_1.c **** * Theory:
 849:Generated_Source\PSoC5/SPIM_1.c **** *  Setting the pointers to zero makes the system believe there is no data to
 850:Generated_Source\PSoC5/SPIM_1.c **** *  read and writing will resume at address 0 overwriting any data that may have
 851:Generated_Source\PSoC5/SPIM_1.c **** *  remained in the RAM.
 852:Generated_Source\PSoC5/SPIM_1.c **** *
 853:Generated_Source\PSoC5/SPIM_1.c **** * Side Effects:
 854:Generated_Source\PSoC5/SPIM_1.c **** *  Any data not yet transmitted from the RAM buffer will be lost when
 855:Generated_Source\PSoC5/SPIM_1.c **** *  overwritten.
 856:Generated_Source\PSoC5/SPIM_1.c **** *
 857:Generated_Source\PSoC5/SPIM_1.c **** * Reentrant:
 858:Generated_Source\PSoC5/SPIM_1.c **** *  No.
 859:Generated_Source\PSoC5/SPIM_1.c **** *
 860:Generated_Source\PSoC5/SPIM_1.c **** *******************************************************************************/
 861:Generated_Source\PSoC5/SPIM_1.c **** void SPIM_1_ClearTxBuffer(void) 
 862:Generated_Source\PSoC5/SPIM_1.c **** {
 865              		.loc 1 862 0
 866              		.cfi_startproc
 867              		@ args = 0, pretend = 0, frame = 8
 868              		@ frame_needed = 1, uses_anonymous_args = 0
 869 0000 80B5     		push	{r7, lr}
 870              		.cfi_def_cfa_offset 8
 871              		.cfi_offset 7, -8
 872              		.cfi_offset 14, -4
 873 0002 82B0     		sub	sp, sp, #8
 874              		.cfi_def_cfa_offset 16
 875 0004 00AF     		add	r7, sp, #0
 876              		.cfi_def_cfa_register 7
 863:Generated_Source\PSoC5/SPIM_1.c ****     uint8 enableInterrupts;
 864:Generated_Source\PSoC5/SPIM_1.c **** 
 865:Generated_Source\PSoC5/SPIM_1.c ****     enableInterrupts = CyEnterCriticalSection();
 877              		.loc 1 865 0
 878 0006 FFF7FEFF 		bl	CyEnterCriticalSection
 879 000a 0346     		mov	r3, r0
 880 000c FB71     		strb	r3, [r7, #7]
 866:Generated_Source\PSoC5/SPIM_1.c ****     /* Clear TX FIFO */
 867:Generated_Source\PSoC5/SPIM_1.c ****     SPIM_1_AUX_CONTROL_DP0_REG |= ((uint8)  SPIM_1_TX_FIFO_CLR);
 881              		.loc 1 867 0
 882 000e 144A     		ldr	r2, .L63
 883 0010 134B     		ldr	r3, .L63
 884 0012 1B78     		ldrb	r3, [r3]
 885 0014 DBB2     		uxtb	r3, r3
 886 0016 43F00103 		orr	r3, r3, #1
 887 001a DBB2     		uxtb	r3, r3
 888 001c 1370     		strb	r3, [r2]
 868:Generated_Source\PSoC5/SPIM_1.c ****     SPIM_1_AUX_CONTROL_DP0_REG &= ((uint8) ~SPIM_1_TX_FIFO_CLR);
 889              		.loc 1 868 0
 890 001e 104A     		ldr	r2, .L63
 891 0020 0F4B     		ldr	r3, .L63
 892 0022 1B78     		ldrb	r3, [r3]
 893 0024 DBB2     		uxtb	r3, r3
 894 0026 23F00103 		bic	r3, r3, #1
 895 002a DBB2     		uxtb	r3, r3
 896 002c 1370     		strb	r3, [r2]
 869:Generated_Source\PSoC5/SPIM_1.c **** 
 870:Generated_Source\PSoC5/SPIM_1.c ****     #if(SPIM_1_USE_SECOND_DATAPATH)
ARM GAS  C:\Users\z004e6he\AppData\Local\Temp\ccx6P8oF.s 			page 32


 871:Generated_Source\PSoC5/SPIM_1.c ****         /* Clear TX FIFO for 2nd Datapath */
 872:Generated_Source\PSoC5/SPIM_1.c ****         SPIM_1_AUX_CONTROL_DP1_REG |= ((uint8)  SPIM_1_TX_FIFO_CLR);
 897              		.loc 1 872 0
 898 002e 0D4A     		ldr	r2, .L63+4
 899 0030 0C4B     		ldr	r3, .L63+4
 900 0032 1B78     		ldrb	r3, [r3]
 901 0034 DBB2     		uxtb	r3, r3
 902 0036 43F00103 		orr	r3, r3, #1
 903 003a DBB2     		uxtb	r3, r3
 904 003c 1370     		strb	r3, [r2]
 873:Generated_Source\PSoC5/SPIM_1.c ****         SPIM_1_AUX_CONTROL_DP1_REG &= ((uint8) ~SPIM_1_TX_FIFO_CLR);
 905              		.loc 1 873 0
 906 003e 094A     		ldr	r2, .L63+4
 907 0040 084B     		ldr	r3, .L63+4
 908 0042 1B78     		ldrb	r3, [r3]
 909 0044 DBB2     		uxtb	r3, r3
 910 0046 23F00103 		bic	r3, r3, #1
 911 004a DBB2     		uxtb	r3, r3
 912 004c 1370     		strb	r3, [r2]
 874:Generated_Source\PSoC5/SPIM_1.c ****     #endif /* (SPIM_1_USE_SECOND_DATAPATH) */
 875:Generated_Source\PSoC5/SPIM_1.c ****     CyExitCriticalSection(enableInterrupts);
 913              		.loc 1 875 0
 914 004e FB79     		ldrb	r3, [r7, #7]	@ zero_extendqisi2
 915 0050 1846     		mov	r0, r3
 916 0052 FFF7FEFF 		bl	CyExitCriticalSection
 876:Generated_Source\PSoC5/SPIM_1.c **** 
 877:Generated_Source\PSoC5/SPIM_1.c ****     #if(SPIM_1_TX_SOFTWARE_BUF_ENABLED)
 878:Generated_Source\PSoC5/SPIM_1.c ****         /* Disable TX interrupt to protect global veriables */
 879:Generated_Source\PSoC5/SPIM_1.c ****         SPIM_1_DisableTxInt();
 880:Generated_Source\PSoC5/SPIM_1.c **** 
 881:Generated_Source\PSoC5/SPIM_1.c ****         SPIM_1_txBufferFull  = 0u;
 882:Generated_Source\PSoC5/SPIM_1.c ****         SPIM_1_txBufferRead  = 0u;
 883:Generated_Source\PSoC5/SPIM_1.c ****         SPIM_1_txBufferWrite = 0u;
 884:Generated_Source\PSoC5/SPIM_1.c **** 
 885:Generated_Source\PSoC5/SPIM_1.c ****         /* Buffer is EMPTY: disable TX FIFO NOT FULL interrupt */
 886:Generated_Source\PSoC5/SPIM_1.c ****         SPIM_1_TX_STATUS_MASK_REG &= ((uint8) ~SPIM_1_STS_TX_FIFO_NOT_FULL);
 887:Generated_Source\PSoC5/SPIM_1.c **** 
 888:Generated_Source\PSoC5/SPIM_1.c ****         SPIM_1_EnableTxInt();
 889:Generated_Source\PSoC5/SPIM_1.c ****     #endif /* (SPIM_1_TX_SOFTWARE_BUF_ENABLED) */
 890:Generated_Source\PSoC5/SPIM_1.c **** }
 917              		.loc 1 890 0
 918 0056 00BF     		nop
 919 0058 0837     		adds	r7, r7, #8
 920              		.cfi_def_cfa_offset 8
 921 005a BD46     		mov	sp, r7
 922              		.cfi_def_cfa_register 13
 923              		@ sp needed
 924 005c 80BD     		pop	{r7, pc}
 925              	.L64:
 926 005e 00BF     		.align	2
 927              	.L63:
 928 0060 98640040 		.word	1073767576
 929 0064 99640040 		.word	1073767577
 930              		.cfi_endproc
 931              	.LFE17:
 932              		.size	SPIM_1_ClearTxBuffer, .-SPIM_1_ClearTxBuffer
 933              		.section	.text.SPIM_1_PutArray,"ax",%progbits
ARM GAS  C:\Users\z004e6he\AppData\Local\Temp\ccx6P8oF.s 			page 33


 934              		.align	2
 935              		.global	SPIM_1_PutArray
 936              		.thumb
 937              		.thumb_func
 938              		.type	SPIM_1_PutArray, %function
 939              	SPIM_1_PutArray:
 940              	.LFB18:
 891:Generated_Source\PSoC5/SPIM_1.c **** 
 892:Generated_Source\PSoC5/SPIM_1.c **** 
 893:Generated_Source\PSoC5/SPIM_1.c **** #if(0u != SPIM_1_BIDIRECTIONAL_MODE)
 894:Generated_Source\PSoC5/SPIM_1.c ****     /*******************************************************************************
 895:Generated_Source\PSoC5/SPIM_1.c ****     * Function Name: SPIM_1_TxEnable
 896:Generated_Source\PSoC5/SPIM_1.c ****     ********************************************************************************
 897:Generated_Source\PSoC5/SPIM_1.c ****     *
 898:Generated_Source\PSoC5/SPIM_1.c ****     * Summary:
 899:Generated_Source\PSoC5/SPIM_1.c ****     *  If the SPI master is configured to use a single bi-directional pin then this
 900:Generated_Source\PSoC5/SPIM_1.c ****     *  will set the bi-directional pin to transmit.
 901:Generated_Source\PSoC5/SPIM_1.c ****     *
 902:Generated_Source\PSoC5/SPIM_1.c ****     * Parameters:
 903:Generated_Source\PSoC5/SPIM_1.c ****     *  None.
 904:Generated_Source\PSoC5/SPIM_1.c ****     *
 905:Generated_Source\PSoC5/SPIM_1.c ****     * Return:
 906:Generated_Source\PSoC5/SPIM_1.c ****     *  None.
 907:Generated_Source\PSoC5/SPIM_1.c ****     *
 908:Generated_Source\PSoC5/SPIM_1.c ****     *******************************************************************************/
 909:Generated_Source\PSoC5/SPIM_1.c ****     void SPIM_1_TxEnable(void) 
 910:Generated_Source\PSoC5/SPIM_1.c ****     {
 911:Generated_Source\PSoC5/SPIM_1.c ****         SPIM_1_CONTROL_REG |= SPIM_1_CTRL_TX_SIGNAL_EN;
 912:Generated_Source\PSoC5/SPIM_1.c ****     }
 913:Generated_Source\PSoC5/SPIM_1.c **** 
 914:Generated_Source\PSoC5/SPIM_1.c **** 
 915:Generated_Source\PSoC5/SPIM_1.c ****     /*******************************************************************************
 916:Generated_Source\PSoC5/SPIM_1.c ****     * Function Name: SPIM_1_TxDisable
 917:Generated_Source\PSoC5/SPIM_1.c ****     ********************************************************************************
 918:Generated_Source\PSoC5/SPIM_1.c ****     *
 919:Generated_Source\PSoC5/SPIM_1.c ****     * Summary:
 920:Generated_Source\PSoC5/SPIM_1.c ****     *  If the SPI master is configured to use a single bi-directional pin then this
 921:Generated_Source\PSoC5/SPIM_1.c ****     *  will set the bi-directional pin to receive.
 922:Generated_Source\PSoC5/SPIM_1.c ****     *
 923:Generated_Source\PSoC5/SPIM_1.c ****     * Parameters:
 924:Generated_Source\PSoC5/SPIM_1.c ****     *  None.
 925:Generated_Source\PSoC5/SPIM_1.c ****     *
 926:Generated_Source\PSoC5/SPIM_1.c ****     * Return:
 927:Generated_Source\PSoC5/SPIM_1.c ****     *  None.
 928:Generated_Source\PSoC5/SPIM_1.c ****     *
 929:Generated_Source\PSoC5/SPIM_1.c ****     *******************************************************************************/
 930:Generated_Source\PSoC5/SPIM_1.c ****     void SPIM_1_TxDisable(void) 
 931:Generated_Source\PSoC5/SPIM_1.c ****     {
 932:Generated_Source\PSoC5/SPIM_1.c ****         SPIM_1_CONTROL_REG &= ((uint8) ~SPIM_1_CTRL_TX_SIGNAL_EN);
 933:Generated_Source\PSoC5/SPIM_1.c ****     }
 934:Generated_Source\PSoC5/SPIM_1.c **** 
 935:Generated_Source\PSoC5/SPIM_1.c **** #endif /* (0u != SPIM_1_BIDIRECTIONAL_MODE) */
 936:Generated_Source\PSoC5/SPIM_1.c **** 
 937:Generated_Source\PSoC5/SPIM_1.c **** 
 938:Generated_Source\PSoC5/SPIM_1.c **** /*******************************************************************************
 939:Generated_Source\PSoC5/SPIM_1.c **** * Function Name: SPIM_1_PutArray
 940:Generated_Source\PSoC5/SPIM_1.c **** ********************************************************************************
ARM GAS  C:\Users\z004e6he\AppData\Local\Temp\ccx6P8oF.s 			page 34


 941:Generated_Source\PSoC5/SPIM_1.c **** *
 942:Generated_Source\PSoC5/SPIM_1.c **** * Summary:
 943:Generated_Source\PSoC5/SPIM_1.c **** *  Write available data from ROM/RAM to the TX buffer while space is available
 944:Generated_Source\PSoC5/SPIM_1.c **** *  in the TX buffer. Keep trying until all data is passed to the TX buffer.
 945:Generated_Source\PSoC5/SPIM_1.c **** *
 946:Generated_Source\PSoC5/SPIM_1.c **** * Parameters:
 947:Generated_Source\PSoC5/SPIM_1.c **** *  *buffer: Pointer to the location in RAM containing the data to send
 948:Generated_Source\PSoC5/SPIM_1.c **** *  byteCount: The number of bytes to move to the transmit buffer.
 949:Generated_Source\PSoC5/SPIM_1.c **** *
 950:Generated_Source\PSoC5/SPIM_1.c **** * Return:
 951:Generated_Source\PSoC5/SPIM_1.c **** *  None.
 952:Generated_Source\PSoC5/SPIM_1.c **** *
 953:Generated_Source\PSoC5/SPIM_1.c **** * Side Effects:
 954:Generated_Source\PSoC5/SPIM_1.c **** *  Will stay in this routine until all data has been sent.  May get locked in
 955:Generated_Source\PSoC5/SPIM_1.c **** *  this loop if data is not being initiated by the master if there is not
 956:Generated_Source\PSoC5/SPIM_1.c **** *  enough room in the TX FIFO.
 957:Generated_Source\PSoC5/SPIM_1.c **** *
 958:Generated_Source\PSoC5/SPIM_1.c **** * Reentrant:
 959:Generated_Source\PSoC5/SPIM_1.c **** *  No.
 960:Generated_Source\PSoC5/SPIM_1.c **** *
 961:Generated_Source\PSoC5/SPIM_1.c **** *******************************************************************************/
 962:Generated_Source\PSoC5/SPIM_1.c **** void SPIM_1_PutArray(const uint16 buffer[], uint8 byteCount)
 963:Generated_Source\PSoC5/SPIM_1.c ****                                                                           
 964:Generated_Source\PSoC5/SPIM_1.c **** {
 941              		.loc 1 964 0
 942              		.cfi_startproc
 943              		@ args = 0, pretend = 0, frame = 16
 944              		@ frame_needed = 1, uses_anonymous_args = 0
 945 0000 80B5     		push	{r7, lr}
 946              		.cfi_def_cfa_offset 8
 947              		.cfi_offset 7, -8
 948              		.cfi_offset 14, -4
 949 0002 84B0     		sub	sp, sp, #16
 950              		.cfi_def_cfa_offset 24
 951 0004 00AF     		add	r7, sp, #0
 952              		.cfi_def_cfa_register 7
 953 0006 7860     		str	r0, [r7, #4]
 954 0008 0B46     		mov	r3, r1
 955 000a FB70     		strb	r3, [r7, #3]
 965:Generated_Source\PSoC5/SPIM_1.c ****     uint8 bufIndex;
 966:Generated_Source\PSoC5/SPIM_1.c **** 
 967:Generated_Source\PSoC5/SPIM_1.c ****     bufIndex = 0u;
 956              		.loc 1 967 0
 957 000c 0023     		movs	r3, #0
 958 000e FB73     		strb	r3, [r7, #15]
 968:Generated_Source\PSoC5/SPIM_1.c **** 
 969:Generated_Source\PSoC5/SPIM_1.c ****     while(byteCount > 0u)
 959              		.loc 1 969 0
 960 0010 0DE0     		b	.L66
 961              	.L67:
 970:Generated_Source\PSoC5/SPIM_1.c ****     {
 971:Generated_Source\PSoC5/SPIM_1.c ****         SPIM_1_WriteTxData(buffer[bufIndex]);
 962              		.loc 1 971 0
 963 0012 FB7B     		ldrb	r3, [r7, #15]	@ zero_extendqisi2
 964 0014 5B00     		lsls	r3, r3, #1
 965 0016 7A68     		ldr	r2, [r7, #4]
 966 0018 1344     		add	r3, r3, r2
ARM GAS  C:\Users\z004e6he\AppData\Local\Temp\ccx6P8oF.s 			page 35


 967 001a 1B88     		ldrh	r3, [r3]
 968 001c 1846     		mov	r0, r3
 969 001e FFF7FEFF 		bl	SPIM_1_WriteTxData
 972:Generated_Source\PSoC5/SPIM_1.c ****         bufIndex++;
 970              		.loc 1 972 0
 971 0022 FB7B     		ldrb	r3, [r7, #15]	@ zero_extendqisi2
 972 0024 0133     		adds	r3, r3, #1
 973 0026 FB73     		strb	r3, [r7, #15]
 973:Generated_Source\PSoC5/SPIM_1.c ****         byteCount--;
 974              		.loc 1 973 0
 975 0028 FB78     		ldrb	r3, [r7, #3]	@ zero_extendqisi2
 976 002a 013B     		subs	r3, r3, #1
 977 002c FB70     		strb	r3, [r7, #3]
 978              	.L66:
 969:Generated_Source\PSoC5/SPIM_1.c ****     {
 979              		.loc 1 969 0
 980 002e FB78     		ldrb	r3, [r7, #3]	@ zero_extendqisi2
 981 0030 002B     		cmp	r3, #0
 982 0032 EED1     		bne	.L67
 974:Generated_Source\PSoC5/SPIM_1.c ****     }
 975:Generated_Source\PSoC5/SPIM_1.c **** }
 983              		.loc 1 975 0
 984 0034 00BF     		nop
 985 0036 1037     		adds	r7, r7, #16
 986              		.cfi_def_cfa_offset 8
 987 0038 BD46     		mov	sp, r7
 988              		.cfi_def_cfa_register 13
 989              		@ sp needed
 990 003a 80BD     		pop	{r7, pc}
 991              		.cfi_endproc
 992              	.LFE18:
 993              		.size	SPIM_1_PutArray, .-SPIM_1_PutArray
 994              		.section	.text.SPIM_1_ClearFIFO,"ax",%progbits
 995              		.align	2
 996              		.global	SPIM_1_ClearFIFO
 997              		.thumb
 998              		.thumb_func
 999              		.type	SPIM_1_ClearFIFO, %function
 1000              	SPIM_1_ClearFIFO:
 1001              	.LFB19:
 976:Generated_Source\PSoC5/SPIM_1.c **** 
 977:Generated_Source\PSoC5/SPIM_1.c **** 
 978:Generated_Source\PSoC5/SPIM_1.c **** /*******************************************************************************
 979:Generated_Source\PSoC5/SPIM_1.c **** * Function Name: SPIM_1_ClearFIFO
 980:Generated_Source\PSoC5/SPIM_1.c **** ********************************************************************************
 981:Generated_Source\PSoC5/SPIM_1.c **** *
 982:Generated_Source\PSoC5/SPIM_1.c **** * Summary:
 983:Generated_Source\PSoC5/SPIM_1.c **** *  Clear the RX and TX FIFO's of all data for a fresh start.
 984:Generated_Source\PSoC5/SPIM_1.c **** *
 985:Generated_Source\PSoC5/SPIM_1.c **** * Parameters:
 986:Generated_Source\PSoC5/SPIM_1.c **** *  None.
 987:Generated_Source\PSoC5/SPIM_1.c **** *
 988:Generated_Source\PSoC5/SPIM_1.c **** * Return:
 989:Generated_Source\PSoC5/SPIM_1.c **** *  None.
 990:Generated_Source\PSoC5/SPIM_1.c **** *
 991:Generated_Source\PSoC5/SPIM_1.c **** * Side Effects:
 992:Generated_Source\PSoC5/SPIM_1.c **** *  Clear status register of the component.
ARM GAS  C:\Users\z004e6he\AppData\Local\Temp\ccx6P8oF.s 			page 36


 993:Generated_Source\PSoC5/SPIM_1.c **** *
 994:Generated_Source\PSoC5/SPIM_1.c **** *******************************************************************************/
 995:Generated_Source\PSoC5/SPIM_1.c **** void SPIM_1_ClearFIFO(void) 
 996:Generated_Source\PSoC5/SPIM_1.c **** {
 1002              		.loc 1 996 0
 1003              		.cfi_startproc
 1004              		@ args = 0, pretend = 0, frame = 8
 1005              		@ frame_needed = 1, uses_anonymous_args = 0
 1006 0000 80B5     		push	{r7, lr}
 1007              		.cfi_def_cfa_offset 8
 1008              		.cfi_offset 7, -8
 1009              		.cfi_offset 14, -4
 1010 0002 82B0     		sub	sp, sp, #8
 1011              		.cfi_def_cfa_offset 16
 1012 0004 00AF     		add	r7, sp, #0
 1013              		.cfi_def_cfa_register 7
 997:Generated_Source\PSoC5/SPIM_1.c ****     uint8 enableInterrupts;
 998:Generated_Source\PSoC5/SPIM_1.c **** 
 999:Generated_Source\PSoC5/SPIM_1.c ****     /* Clear Hardware RX FIFO */
1000:Generated_Source\PSoC5/SPIM_1.c ****     while(0u !=(SPIM_1_RX_STATUS_REG & SPIM_1_STS_RX_FIFO_NOT_EMPTY))
 1014              		.loc 1 1000 0
 1015 0006 01E0     		b	.L69
 1016              	.L70:
1001:Generated_Source\PSoC5/SPIM_1.c ****     {
1002:Generated_Source\PSoC5/SPIM_1.c ****         (void) CY_GET_REG16(SPIM_1_RXDATA_PTR);
 1017              		.loc 1 1002 0
 1018 0008 1A4B     		ldr	r3, .L71
 1019 000a 1B88     		ldrh	r3, [r3]	@ movhi
 1020              	.L69:
1000:Generated_Source\PSoC5/SPIM_1.c ****     {
 1021              		.loc 1 1000 0
 1022 000c 1A4B     		ldr	r3, .L71+4
 1023 000e 1B78     		ldrb	r3, [r3]
 1024 0010 DBB2     		uxtb	r3, r3
 1025 0012 03F02003 		and	r3, r3, #32
 1026 0016 002B     		cmp	r3, #0
 1027 0018 F6D1     		bne	.L70
1003:Generated_Source\PSoC5/SPIM_1.c ****     }
1004:Generated_Source\PSoC5/SPIM_1.c **** 
1005:Generated_Source\PSoC5/SPIM_1.c ****     enableInterrupts = CyEnterCriticalSection();
 1028              		.loc 1 1005 0
 1029 001a FFF7FEFF 		bl	CyEnterCriticalSection
 1030 001e 0346     		mov	r3, r0
 1031 0020 FB71     		strb	r3, [r7, #7]
1006:Generated_Source\PSoC5/SPIM_1.c ****     /* Clear TX FIFO */
1007:Generated_Source\PSoC5/SPIM_1.c ****     SPIM_1_AUX_CONTROL_DP0_REG |= ((uint8)  SPIM_1_TX_FIFO_CLR);
 1032              		.loc 1 1007 0
 1033 0022 164A     		ldr	r2, .L71+8
 1034 0024 154B     		ldr	r3, .L71+8
 1035 0026 1B78     		ldrb	r3, [r3]
 1036 0028 DBB2     		uxtb	r3, r3
 1037 002a 43F00103 		orr	r3, r3, #1
 1038 002e DBB2     		uxtb	r3, r3
 1039 0030 1370     		strb	r3, [r2]
1008:Generated_Source\PSoC5/SPIM_1.c ****     SPIM_1_AUX_CONTROL_DP0_REG &= ((uint8) ~SPIM_1_TX_FIFO_CLR);
 1040              		.loc 1 1008 0
 1041 0032 124A     		ldr	r2, .L71+8
ARM GAS  C:\Users\z004e6he\AppData\Local\Temp\ccx6P8oF.s 			page 37


 1042 0034 114B     		ldr	r3, .L71+8
 1043 0036 1B78     		ldrb	r3, [r3]
 1044 0038 DBB2     		uxtb	r3, r3
 1045 003a 23F00103 		bic	r3, r3, #1
 1046 003e DBB2     		uxtb	r3, r3
 1047 0040 1370     		strb	r3, [r2]
1009:Generated_Source\PSoC5/SPIM_1.c **** 
1010:Generated_Source\PSoC5/SPIM_1.c ****     #if(SPIM_1_USE_SECOND_DATAPATH)
1011:Generated_Source\PSoC5/SPIM_1.c ****         /* Clear TX FIFO for 2nd Datapath */
1012:Generated_Source\PSoC5/SPIM_1.c ****         SPIM_1_AUX_CONTROL_DP1_REG |= ((uint8)  SPIM_1_TX_FIFO_CLR);
 1048              		.loc 1 1012 0
 1049 0042 0F4A     		ldr	r2, .L71+12
 1050 0044 0E4B     		ldr	r3, .L71+12
 1051 0046 1B78     		ldrb	r3, [r3]
 1052 0048 DBB2     		uxtb	r3, r3
 1053 004a 43F00103 		orr	r3, r3, #1
 1054 004e DBB2     		uxtb	r3, r3
 1055 0050 1370     		strb	r3, [r2]
1013:Generated_Source\PSoC5/SPIM_1.c ****         SPIM_1_AUX_CONTROL_DP1_REG &= ((uint8) ~SPIM_1_TX_FIFO_CLR);
 1056              		.loc 1 1013 0
 1057 0052 0B4A     		ldr	r2, .L71+12
 1058 0054 0A4B     		ldr	r3, .L71+12
 1059 0056 1B78     		ldrb	r3, [r3]
 1060 0058 DBB2     		uxtb	r3, r3
 1061 005a 23F00103 		bic	r3, r3, #1
 1062 005e DBB2     		uxtb	r3, r3
 1063 0060 1370     		strb	r3, [r2]
1014:Generated_Source\PSoC5/SPIM_1.c ****     #endif /* (SPIM_1_USE_SECOND_DATAPATH) */
1015:Generated_Source\PSoC5/SPIM_1.c ****     CyExitCriticalSection(enableInterrupts);
 1064              		.loc 1 1015 0
 1065 0062 FB79     		ldrb	r3, [r7, #7]	@ zero_extendqisi2
 1066 0064 1846     		mov	r0, r3
 1067 0066 FFF7FEFF 		bl	CyExitCriticalSection
1016:Generated_Source\PSoC5/SPIM_1.c **** }
 1068              		.loc 1 1016 0
 1069 006a 00BF     		nop
 1070 006c 0837     		adds	r7, r7, #8
 1071              		.cfi_def_cfa_offset 8
 1072 006e BD46     		mov	sp, r7
 1073              		.cfi_def_cfa_register 13
 1074              		@ sp needed
 1075 0070 80BD     		pop	{r7, pc}
 1076              	.L72:
 1077 0072 00BF     		.align	2
 1078              	.L71:
 1079 0074 58640040 		.word	1073767512
 1080 0078 69650040 		.word	1073767785
 1081 007c 98640040 		.word	1073767576
 1082 0080 99640040 		.word	1073767577
 1083              		.cfi_endproc
 1084              	.LFE19:
 1085              		.size	SPIM_1_ClearFIFO, .-SPIM_1_ClearFIFO
 1086              		.section	.text.SPIM_1_EnableInt,"ax",%progbits
 1087              		.align	2
 1088              		.global	SPIM_1_EnableInt
 1089              		.thumb
 1090              		.thumb_func
ARM GAS  C:\Users\z004e6he\AppData\Local\Temp\ccx6P8oF.s 			page 38


 1091              		.type	SPIM_1_EnableInt, %function
 1092              	SPIM_1_EnableInt:
 1093              	.LFB20:
1017:Generated_Source\PSoC5/SPIM_1.c **** 
1018:Generated_Source\PSoC5/SPIM_1.c **** 
1019:Generated_Source\PSoC5/SPIM_1.c **** /* Following functions are for version Compatibility, they are obsolete.
1020:Generated_Source\PSoC5/SPIM_1.c **** *  Please do not use it in new projects.
1021:Generated_Source\PSoC5/SPIM_1.c **** */
1022:Generated_Source\PSoC5/SPIM_1.c **** 
1023:Generated_Source\PSoC5/SPIM_1.c **** 
1024:Generated_Source\PSoC5/SPIM_1.c **** /*******************************************************************************
1025:Generated_Source\PSoC5/SPIM_1.c **** * Function Name: SPIM_1_EnableInt
1026:Generated_Source\PSoC5/SPIM_1.c **** ********************************************************************************
1027:Generated_Source\PSoC5/SPIM_1.c **** *
1028:Generated_Source\PSoC5/SPIM_1.c **** * Summary:
1029:Generated_Source\PSoC5/SPIM_1.c **** *  Enable internal interrupt generation.
1030:Generated_Source\PSoC5/SPIM_1.c **** *
1031:Generated_Source\PSoC5/SPIM_1.c **** * Parameters:
1032:Generated_Source\PSoC5/SPIM_1.c **** *  None.
1033:Generated_Source\PSoC5/SPIM_1.c **** *
1034:Generated_Source\PSoC5/SPIM_1.c **** * Return:
1035:Generated_Source\PSoC5/SPIM_1.c **** *  None.
1036:Generated_Source\PSoC5/SPIM_1.c **** *
1037:Generated_Source\PSoC5/SPIM_1.c **** * Theory:
1038:Generated_Source\PSoC5/SPIM_1.c **** *  Enable the internal interrupt output -or- the interrupt component itself.
1039:Generated_Source\PSoC5/SPIM_1.c **** *
1040:Generated_Source\PSoC5/SPIM_1.c **** *******************************************************************************/
1041:Generated_Source\PSoC5/SPIM_1.c **** void SPIM_1_EnableInt(void) 
1042:Generated_Source\PSoC5/SPIM_1.c **** {
 1094              		.loc 1 1042 0
 1095              		.cfi_startproc
 1096              		@ args = 0, pretend = 0, frame = 0
 1097              		@ frame_needed = 1, uses_anonymous_args = 0
 1098 0000 80B5     		push	{r7, lr}
 1099              		.cfi_def_cfa_offset 8
 1100              		.cfi_offset 7, -8
 1101              		.cfi_offset 14, -4
 1102 0002 00AF     		add	r7, sp, #0
 1103              		.cfi_def_cfa_register 7
1043:Generated_Source\PSoC5/SPIM_1.c ****     SPIM_1_EnableRxInt();
 1104              		.loc 1 1043 0
 1105 0004 FFF7FEFF 		bl	SPIM_1_EnableRxInt
1044:Generated_Source\PSoC5/SPIM_1.c ****     SPIM_1_EnableTxInt();
 1106              		.loc 1 1044 0
 1107 0008 FFF7FEFF 		bl	SPIM_1_EnableTxInt
1045:Generated_Source\PSoC5/SPIM_1.c **** }
 1108              		.loc 1 1045 0
 1109 000c 00BF     		nop
 1110 000e 80BD     		pop	{r7, pc}
 1111              		.cfi_endproc
 1112              	.LFE20:
 1113              		.size	SPIM_1_EnableInt, .-SPIM_1_EnableInt
 1114              		.section	.text.SPIM_1_DisableInt,"ax",%progbits
 1115              		.align	2
 1116              		.global	SPIM_1_DisableInt
 1117              		.thumb
 1118              		.thumb_func
ARM GAS  C:\Users\z004e6he\AppData\Local\Temp\ccx6P8oF.s 			page 39


 1119              		.type	SPIM_1_DisableInt, %function
 1120              	SPIM_1_DisableInt:
 1121              	.LFB21:
1046:Generated_Source\PSoC5/SPIM_1.c **** 
1047:Generated_Source\PSoC5/SPIM_1.c **** 
1048:Generated_Source\PSoC5/SPIM_1.c **** /*******************************************************************************
1049:Generated_Source\PSoC5/SPIM_1.c **** * Function Name: SPIM_1_DisableInt
1050:Generated_Source\PSoC5/SPIM_1.c **** ********************************************************************************
1051:Generated_Source\PSoC5/SPIM_1.c **** *
1052:Generated_Source\PSoC5/SPIM_1.c **** * Summary:
1053:Generated_Source\PSoC5/SPIM_1.c **** *  Disable internal interrupt generation.
1054:Generated_Source\PSoC5/SPIM_1.c **** *
1055:Generated_Source\PSoC5/SPIM_1.c **** * Parameters:
1056:Generated_Source\PSoC5/SPIM_1.c **** *  None.
1057:Generated_Source\PSoC5/SPIM_1.c **** *
1058:Generated_Source\PSoC5/SPIM_1.c **** * Return:
1059:Generated_Source\PSoC5/SPIM_1.c **** *  None.
1060:Generated_Source\PSoC5/SPIM_1.c **** *
1061:Generated_Source\PSoC5/SPIM_1.c **** * Theory:
1062:Generated_Source\PSoC5/SPIM_1.c **** *  Disable the internal interrupt output -or- the interrupt component itself.
1063:Generated_Source\PSoC5/SPIM_1.c **** *
1064:Generated_Source\PSoC5/SPIM_1.c **** *******************************************************************************/
1065:Generated_Source\PSoC5/SPIM_1.c **** void SPIM_1_DisableInt(void) 
1066:Generated_Source\PSoC5/SPIM_1.c **** {
 1122              		.loc 1 1066 0
 1123              		.cfi_startproc
 1124              		@ args = 0, pretend = 0, frame = 0
 1125              		@ frame_needed = 1, uses_anonymous_args = 0
 1126 0000 80B5     		push	{r7, lr}
 1127              		.cfi_def_cfa_offset 8
 1128              		.cfi_offset 7, -8
 1129              		.cfi_offset 14, -4
 1130 0002 00AF     		add	r7, sp, #0
 1131              		.cfi_def_cfa_register 7
1067:Generated_Source\PSoC5/SPIM_1.c ****     SPIM_1_DisableTxInt();
 1132              		.loc 1 1067 0
 1133 0004 FFF7FEFF 		bl	SPIM_1_DisableTxInt
1068:Generated_Source\PSoC5/SPIM_1.c ****     SPIM_1_DisableRxInt();
 1134              		.loc 1 1068 0
 1135 0008 FFF7FEFF 		bl	SPIM_1_DisableRxInt
1069:Generated_Source\PSoC5/SPIM_1.c **** }
 1136              		.loc 1 1069 0
 1137 000c 00BF     		nop
 1138 000e 80BD     		pop	{r7, pc}
 1139              		.cfi_endproc
 1140              	.LFE21:
 1141              		.size	SPIM_1_DisableInt, .-SPIM_1_DisableInt
 1142              		.section	.text.SPIM_1_SetInterruptMode,"ax",%progbits
 1143              		.align	2
 1144              		.global	SPIM_1_SetInterruptMode
 1145              		.thumb
 1146              		.thumb_func
 1147              		.type	SPIM_1_SetInterruptMode, %function
 1148              	SPIM_1_SetInterruptMode:
 1149              	.LFB22:
1070:Generated_Source\PSoC5/SPIM_1.c **** 
1071:Generated_Source\PSoC5/SPIM_1.c **** 
ARM GAS  C:\Users\z004e6he\AppData\Local\Temp\ccx6P8oF.s 			page 40


1072:Generated_Source\PSoC5/SPIM_1.c **** /*******************************************************************************
1073:Generated_Source\PSoC5/SPIM_1.c **** * Function Name: SPIM_1_SetInterruptMode
1074:Generated_Source\PSoC5/SPIM_1.c **** ********************************************************************************
1075:Generated_Source\PSoC5/SPIM_1.c **** *
1076:Generated_Source\PSoC5/SPIM_1.c **** * Summary:
1077:Generated_Source\PSoC5/SPIM_1.c **** *  Configure which status bits trigger an interrupt event.
1078:Generated_Source\PSoC5/SPIM_1.c **** *
1079:Generated_Source\PSoC5/SPIM_1.c **** * Parameters:
1080:Generated_Source\PSoC5/SPIM_1.c **** *  intSrc: An or'd combination of the desired status bit masks (defined in the
1081:Generated_Source\PSoC5/SPIM_1.c **** *  header file).
1082:Generated_Source\PSoC5/SPIM_1.c **** *
1083:Generated_Source\PSoC5/SPIM_1.c **** * Return:
1084:Generated_Source\PSoC5/SPIM_1.c **** *  None.
1085:Generated_Source\PSoC5/SPIM_1.c **** *
1086:Generated_Source\PSoC5/SPIM_1.c **** * Theory:
1087:Generated_Source\PSoC5/SPIM_1.c **** *  Enables the output of specific status bits to the interrupt controller.
1088:Generated_Source\PSoC5/SPIM_1.c **** *
1089:Generated_Source\PSoC5/SPIM_1.c **** *******************************************************************************/
1090:Generated_Source\PSoC5/SPIM_1.c **** void SPIM_1_SetInterruptMode(uint8 intSrc) 
1091:Generated_Source\PSoC5/SPIM_1.c **** {
 1150              		.loc 1 1091 0
 1151              		.cfi_startproc
 1152              		@ args = 0, pretend = 0, frame = 8
 1153              		@ frame_needed = 1, uses_anonymous_args = 0
 1154              		@ link register save eliminated.
 1155 0000 80B4     		push	{r7}
 1156              		.cfi_def_cfa_offset 4
 1157              		.cfi_offset 7, -4
 1158 0002 83B0     		sub	sp, sp, #12
 1159              		.cfi_def_cfa_offset 16
 1160 0004 00AF     		add	r7, sp, #0
 1161              		.cfi_def_cfa_register 7
 1162 0006 0346     		mov	r3, r0
 1163 0008 FB71     		strb	r3, [r7, #7]
1092:Generated_Source\PSoC5/SPIM_1.c ****     SPIM_1_TX_STATUS_MASK_REG  = (intSrc & ((uint8) ~SPIM_1_STS_SPI_IDLE));
 1164              		.loc 1 1092 0
 1165 000a 074A     		ldr	r2, .L76
 1166 000c FB79     		ldrb	r3, [r7, #7]
 1167 000e 23F01003 		bic	r3, r3, #16
 1168 0012 DBB2     		uxtb	r3, r3
 1169 0014 1370     		strb	r3, [r2]
1093:Generated_Source\PSoC5/SPIM_1.c ****     SPIM_1_RX_STATUS_MASK_REG  =  intSrc;
 1170              		.loc 1 1093 0
 1171 0016 054A     		ldr	r2, .L76+4
 1172 0018 FB79     		ldrb	r3, [r7, #7]
 1173 001a 1370     		strb	r3, [r2]
1094:Generated_Source\PSoC5/SPIM_1.c **** }
 1174              		.loc 1 1094 0
 1175 001c 00BF     		nop
 1176 001e 0C37     		adds	r7, r7, #12
 1177              		.cfi_def_cfa_offset 4
 1178 0020 BD46     		mov	sp, r7
 1179              		.cfi_def_cfa_register 13
 1180              		@ sp needed
 1181 0022 80BC     		pop	{r7}
 1182              		.cfi_restore 7
 1183              		.cfi_def_cfa_offset 0
ARM GAS  C:\Users\z004e6he\AppData\Local\Temp\ccx6P8oF.s 			page 41


 1184 0024 7047     		bx	lr
 1185              	.L77:
 1186 0026 00BF     		.align	2
 1187              	.L76:
 1188 0028 88650040 		.word	1073767816
 1189 002c 89650040 		.word	1073767817
 1190              		.cfi_endproc
 1191              	.LFE22:
 1192              		.size	SPIM_1_SetInterruptMode, .-SPIM_1_SetInterruptMode
 1193              		.section	.text.SPIM_1_ReadStatus,"ax",%progbits
 1194              		.align	2
 1195              		.global	SPIM_1_ReadStatus
 1196              		.thumb
 1197              		.thumb_func
 1198              		.type	SPIM_1_ReadStatus, %function
 1199              	SPIM_1_ReadStatus:
 1200              	.LFB23:
1095:Generated_Source\PSoC5/SPIM_1.c **** 
1096:Generated_Source\PSoC5/SPIM_1.c **** 
1097:Generated_Source\PSoC5/SPIM_1.c **** /*******************************************************************************
1098:Generated_Source\PSoC5/SPIM_1.c **** * Function Name: SPIM_1_ReadStatus
1099:Generated_Source\PSoC5/SPIM_1.c **** ********************************************************************************
1100:Generated_Source\PSoC5/SPIM_1.c **** *
1101:Generated_Source\PSoC5/SPIM_1.c **** * Summary:
1102:Generated_Source\PSoC5/SPIM_1.c **** *  Read the status register for the component.
1103:Generated_Source\PSoC5/SPIM_1.c **** *
1104:Generated_Source\PSoC5/SPIM_1.c **** * Parameters:
1105:Generated_Source\PSoC5/SPIM_1.c **** *  None.
1106:Generated_Source\PSoC5/SPIM_1.c **** *
1107:Generated_Source\PSoC5/SPIM_1.c **** * Return:
1108:Generated_Source\PSoC5/SPIM_1.c **** *  Contents of the status register.
1109:Generated_Source\PSoC5/SPIM_1.c **** *
1110:Generated_Source\PSoC5/SPIM_1.c **** * Global variables:
1111:Generated_Source\PSoC5/SPIM_1.c **** *  SPIM_1_swStatus - used to store in software status register,
1112:Generated_Source\PSoC5/SPIM_1.c **** *  modified every function call - resets to zero.
1113:Generated_Source\PSoC5/SPIM_1.c **** *
1114:Generated_Source\PSoC5/SPIM_1.c **** * Theory:
1115:Generated_Source\PSoC5/SPIM_1.c **** *  Allows the user and the API to read the status register for error detection
1116:Generated_Source\PSoC5/SPIM_1.c **** *  and flow control.
1117:Generated_Source\PSoC5/SPIM_1.c **** *
1118:Generated_Source\PSoC5/SPIM_1.c **** * Side Effects:
1119:Generated_Source\PSoC5/SPIM_1.c **** *  Clear status register of the component.
1120:Generated_Source\PSoC5/SPIM_1.c **** *
1121:Generated_Source\PSoC5/SPIM_1.c **** * Reentrant:
1122:Generated_Source\PSoC5/SPIM_1.c **** *  No.
1123:Generated_Source\PSoC5/SPIM_1.c **** *
1124:Generated_Source\PSoC5/SPIM_1.c **** *******************************************************************************/
1125:Generated_Source\PSoC5/SPIM_1.c **** uint8 SPIM_1_ReadStatus(void) 
1126:Generated_Source\PSoC5/SPIM_1.c **** {
 1201              		.loc 1 1126 0
 1202              		.cfi_startproc
 1203              		@ args = 0, pretend = 0, frame = 8
 1204              		@ frame_needed = 1, uses_anonymous_args = 0
 1205              		@ link register save eliminated.
 1206 0000 80B4     		push	{r7}
 1207              		.cfi_def_cfa_offset 4
 1208              		.cfi_offset 7, -4
ARM GAS  C:\Users\z004e6he\AppData\Local\Temp\ccx6P8oF.s 			page 42


 1209 0002 83B0     		sub	sp, sp, #12
 1210              		.cfi_def_cfa_offset 16
 1211 0004 00AF     		add	r7, sp, #0
 1212              		.cfi_def_cfa_register 7
1127:Generated_Source\PSoC5/SPIM_1.c ****     uint8 tmpStatus;
1128:Generated_Source\PSoC5/SPIM_1.c **** 
1129:Generated_Source\PSoC5/SPIM_1.c ****     #if(SPIM_1_TX_SOFTWARE_BUF_ENABLED || SPIM_1_RX_SOFTWARE_BUF_ENABLED)
1130:Generated_Source\PSoC5/SPIM_1.c **** 
1131:Generated_Source\PSoC5/SPIM_1.c ****         SPIM_1_DisableInt();
1132:Generated_Source\PSoC5/SPIM_1.c **** 
1133:Generated_Source\PSoC5/SPIM_1.c ****         tmpStatus  = SPIM_1_GET_STATUS_RX(SPIM_1_swStatusRx);
1134:Generated_Source\PSoC5/SPIM_1.c ****         tmpStatus |= SPIM_1_GET_STATUS_TX(SPIM_1_swStatusTx);
1135:Generated_Source\PSoC5/SPIM_1.c ****         tmpStatus &= ((uint8) ~SPIM_1_STS_SPI_IDLE);
1136:Generated_Source\PSoC5/SPIM_1.c **** 
1137:Generated_Source\PSoC5/SPIM_1.c ****         SPIM_1_swStatusTx = 0u;
1138:Generated_Source\PSoC5/SPIM_1.c ****         SPIM_1_swStatusRx = 0u;
1139:Generated_Source\PSoC5/SPIM_1.c **** 
1140:Generated_Source\PSoC5/SPIM_1.c ****         SPIM_1_EnableInt();
1141:Generated_Source\PSoC5/SPIM_1.c **** 
1142:Generated_Source\PSoC5/SPIM_1.c ****     #else
1143:Generated_Source\PSoC5/SPIM_1.c **** 
1144:Generated_Source\PSoC5/SPIM_1.c ****         tmpStatus  = SPIM_1_RX_STATUS_REG;
 1213              		.loc 1 1144 0
 1214 0006 094B     		ldr	r3, .L80
 1215 0008 1B78     		ldrb	r3, [r3]
 1216 000a FB71     		strb	r3, [r7, #7]
1145:Generated_Source\PSoC5/SPIM_1.c ****         tmpStatus |= SPIM_1_TX_STATUS_REG;
 1217              		.loc 1 1145 0
 1218 000c 084B     		ldr	r3, .L80+4
 1219 000e 1B78     		ldrb	r3, [r3]
 1220 0010 DAB2     		uxtb	r2, r3
 1221 0012 FB79     		ldrb	r3, [r7, #7]
 1222 0014 1343     		orrs	r3, r3, r2
 1223 0016 FB71     		strb	r3, [r7, #7]
1146:Generated_Source\PSoC5/SPIM_1.c ****         tmpStatus &= ((uint8) ~SPIM_1_STS_SPI_IDLE);
 1224              		.loc 1 1146 0
 1225 0018 FB79     		ldrb	r3, [r7, #7]
 1226 001a 23F01003 		bic	r3, r3, #16
 1227 001e FB71     		strb	r3, [r7, #7]
1147:Generated_Source\PSoC5/SPIM_1.c **** 
1148:Generated_Source\PSoC5/SPIM_1.c ****     #endif /* (SPIM_1_TX_SOFTWARE_BUF_ENABLED || SPIM_1_RX_SOFTWARE_BUF_ENABLED) */
1149:Generated_Source\PSoC5/SPIM_1.c **** 
1150:Generated_Source\PSoC5/SPIM_1.c ****     return(tmpStatus);
 1228              		.loc 1 1150 0
 1229 0020 FB79     		ldrb	r3, [r7, #7]	@ zero_extendqisi2
1151:Generated_Source\PSoC5/SPIM_1.c **** }
 1230              		.loc 1 1151 0
 1231 0022 1846     		mov	r0, r3
 1232 0024 0C37     		adds	r7, r7, #12
 1233              		.cfi_def_cfa_offset 4
 1234 0026 BD46     		mov	sp, r7
 1235              		.cfi_def_cfa_register 13
 1236              		@ sp needed
 1237 0028 80BC     		pop	{r7}
 1238              		.cfi_restore 7
 1239              		.cfi_def_cfa_offset 0
 1240 002a 7047     		bx	lr
ARM GAS  C:\Users\z004e6he\AppData\Local\Temp\ccx6P8oF.s 			page 43


 1241              	.L81:
 1242              		.align	2
 1243              	.L80:
 1244 002c 69650040 		.word	1073767785
 1245 0030 68650040 		.word	1073767784
 1246              		.cfi_endproc
 1247              	.LFE23:
 1248              		.size	SPIM_1_ReadStatus, .-SPIM_1_ReadStatus
 1249              		.text
 1250              	.Letext0:
 1251              		.file 2 "Generated_Source\\PSoC5\\cytypes.h"