ARM GAS  C:\Users\z004e6he\AppData\Local\Temp\ccxteeFK.s 			page 1


   1              		.syntax unified
   2              		.cpu cortex-m3
   3              		.fpu softvfp
   4              		.eabi_attribute 20, 1
   5              		.eabi_attribute 21, 1
   6              		.eabi_attribute 23, 3
   7              		.eabi_attribute 24, 1
   8              		.eabi_attribute 25, 1
   9              		.eabi_attribute 26, 1
  10              		.eabi_attribute 30, 1
  11              		.eabi_attribute 34, 1
  12              		.eabi_attribute 18, 4
  13              		.thumb
  14              		.syntax unified
  15              		.file	"rx_isr.c"
  16              		.text
  17              	.Ltext0:
  18              		.cfi_sections	.debug_frame
  19              		.section	.text.rx_isr_Interrupt,"ax",%progbits
  20              		.align	2
  21              		.global	rx_isr_Interrupt
  22              		.thumb
  23              		.thumb_func
  24              		.type	rx_isr_Interrupt, %function
  25              	rx_isr_Interrupt:
  26              	.LFB3:
  27              		.file 1 "Generated_Source\\PSoC5\\rx_isr.c"
   1:Generated_Source\PSoC5/rx_isr.c **** /*******************************************************************************
   2:Generated_Source\PSoC5/rx_isr.c **** * File Name: rx_isr.c  
   3:Generated_Source\PSoC5/rx_isr.c **** * Version 1.70
   4:Generated_Source\PSoC5/rx_isr.c **** *
   5:Generated_Source\PSoC5/rx_isr.c **** *  Description:
   6:Generated_Source\PSoC5/rx_isr.c **** *   API for controlling the state of an interrupt.
   7:Generated_Source\PSoC5/rx_isr.c **** *
   8:Generated_Source\PSoC5/rx_isr.c **** *
   9:Generated_Source\PSoC5/rx_isr.c **** *  Note:
  10:Generated_Source\PSoC5/rx_isr.c **** *
  11:Generated_Source\PSoC5/rx_isr.c **** ********************************************************************************
  12:Generated_Source\PSoC5/rx_isr.c **** * Copyright 2008-2015, Cypress Semiconductor Corporation.  All rights reserved.
  13:Generated_Source\PSoC5/rx_isr.c **** * You may use this file only in accordance with the license, terms, conditions, 
  14:Generated_Source\PSoC5/rx_isr.c **** * disclaimers, and limitations in the end user license agreement accompanying 
  15:Generated_Source\PSoC5/rx_isr.c **** * the software package with which this file was provided.
  16:Generated_Source\PSoC5/rx_isr.c **** *******************************************************************************/
  17:Generated_Source\PSoC5/rx_isr.c **** 
  18:Generated_Source\PSoC5/rx_isr.c **** 
  19:Generated_Source\PSoC5/rx_isr.c **** #include <cydevice_trm.h>
  20:Generated_Source\PSoC5/rx_isr.c **** #include <CyLib.h>
  21:Generated_Source\PSoC5/rx_isr.c **** #include <rx_isr.h>
  22:Generated_Source\PSoC5/rx_isr.c **** #include "cyapicallbacks.h"
  23:Generated_Source\PSoC5/rx_isr.c **** 
  24:Generated_Source\PSoC5/rx_isr.c **** #if !defined(rx_isr__REMOVED) /* Check for removal by optimization */
  25:Generated_Source\PSoC5/rx_isr.c **** 
  26:Generated_Source\PSoC5/rx_isr.c **** /*******************************************************************************
  27:Generated_Source\PSoC5/rx_isr.c **** *  Place your includes, defines and code here 
  28:Generated_Source\PSoC5/rx_isr.c **** ********************************************************************************/
  29:Generated_Source\PSoC5/rx_isr.c **** /* `#START rx_isr_intc` */
  30:Generated_Source\PSoC5/rx_isr.c ****     #include <stdbool.h>
ARM GAS  C:\Users\z004e6he\AppData\Local\Temp\ccxteeFK.s 			page 2


  31:Generated_Source\PSoC5/rx_isr.c ****     extern bool gRX_ISR; //Track UART Receive Interrupt as external flag
  32:Generated_Source\PSoC5/rx_isr.c **** /* `#END` */
  33:Generated_Source\PSoC5/rx_isr.c **** 
  34:Generated_Source\PSoC5/rx_isr.c **** #ifndef CYINT_IRQ_BASE
  35:Generated_Source\PSoC5/rx_isr.c **** #define CYINT_IRQ_BASE      16
  36:Generated_Source\PSoC5/rx_isr.c **** #endif /* CYINT_IRQ_BASE */
  37:Generated_Source\PSoC5/rx_isr.c **** #ifndef CYINT_VECT_TABLE
  38:Generated_Source\PSoC5/rx_isr.c **** #define CYINT_VECT_TABLE    ((cyisraddress **) CYREG_NVIC_VECT_OFFSET)
  39:Generated_Source\PSoC5/rx_isr.c **** #endif /* CYINT_VECT_TABLE */
  40:Generated_Source\PSoC5/rx_isr.c **** 
  41:Generated_Source\PSoC5/rx_isr.c **** /* Declared in startup, used to set unused interrupts to. */
  42:Generated_Source\PSoC5/rx_isr.c **** CY_ISR_PROTO(IntDefaultHandler);
  43:Generated_Source\PSoC5/rx_isr.c **** 
  44:Generated_Source\PSoC5/rx_isr.c **** 
  45:Generated_Source\PSoC5/rx_isr.c **** /*******************************************************************************
  46:Generated_Source\PSoC5/rx_isr.c **** * Function Name: rx_isr_Start
  47:Generated_Source\PSoC5/rx_isr.c **** ********************************************************************************
  48:Generated_Source\PSoC5/rx_isr.c **** *
  49:Generated_Source\PSoC5/rx_isr.c **** * Summary:
  50:Generated_Source\PSoC5/rx_isr.c **** *  Set up the interrupt and enable it. This function disables the interrupt, 
  51:Generated_Source\PSoC5/rx_isr.c **** *  sets the default interrupt vector, sets the priority from the value in the
  52:Generated_Source\PSoC5/rx_isr.c **** *  Design Wide Resources Interrupt Editor, then enables the interrupt to the 
  53:Generated_Source\PSoC5/rx_isr.c **** *  interrupt controller.
  54:Generated_Source\PSoC5/rx_isr.c **** *
  55:Generated_Source\PSoC5/rx_isr.c **** * Parameters:  
  56:Generated_Source\PSoC5/rx_isr.c **** *   None
  57:Generated_Source\PSoC5/rx_isr.c **** *
  58:Generated_Source\PSoC5/rx_isr.c **** * Return:
  59:Generated_Source\PSoC5/rx_isr.c **** *   None
  60:Generated_Source\PSoC5/rx_isr.c **** *
  61:Generated_Source\PSoC5/rx_isr.c **** *******************************************************************************/
  62:Generated_Source\PSoC5/rx_isr.c **** void rx_isr_Start(void)
  63:Generated_Source\PSoC5/rx_isr.c **** {
  64:Generated_Source\PSoC5/rx_isr.c ****     /* For all we know the interrupt is active. */
  65:Generated_Source\PSoC5/rx_isr.c ****     rx_isr_Disable();
  66:Generated_Source\PSoC5/rx_isr.c **** 
  67:Generated_Source\PSoC5/rx_isr.c ****     /* Set the ISR to point to the rx_isr Interrupt. */
  68:Generated_Source\PSoC5/rx_isr.c ****     rx_isr_SetVector(&rx_isr_Interrupt);
  69:Generated_Source\PSoC5/rx_isr.c **** 
  70:Generated_Source\PSoC5/rx_isr.c ****     /* Set the priority. */
  71:Generated_Source\PSoC5/rx_isr.c ****     rx_isr_SetPriority((uint8)rx_isr_INTC_PRIOR_NUMBER);
  72:Generated_Source\PSoC5/rx_isr.c **** 
  73:Generated_Source\PSoC5/rx_isr.c ****     /* Enable it. */
  74:Generated_Source\PSoC5/rx_isr.c ****     rx_isr_Enable();
  75:Generated_Source\PSoC5/rx_isr.c **** }
  76:Generated_Source\PSoC5/rx_isr.c **** 
  77:Generated_Source\PSoC5/rx_isr.c **** 
  78:Generated_Source\PSoC5/rx_isr.c **** /*******************************************************************************
  79:Generated_Source\PSoC5/rx_isr.c **** * Function Name: rx_isr_StartEx
  80:Generated_Source\PSoC5/rx_isr.c **** ********************************************************************************
  81:Generated_Source\PSoC5/rx_isr.c **** *
  82:Generated_Source\PSoC5/rx_isr.c **** * Summary:
  83:Generated_Source\PSoC5/rx_isr.c **** *  Sets up the interrupt and enables it. This function disables the interrupt,
  84:Generated_Source\PSoC5/rx_isr.c **** *  sets the interrupt vector based on the address passed in, sets the priority 
  85:Generated_Source\PSoC5/rx_isr.c **** *  from the value in the Design Wide Resources Interrupt Editor, then enables 
  86:Generated_Source\PSoC5/rx_isr.c **** *  the interrupt to the interrupt controller.
  87:Generated_Source\PSoC5/rx_isr.c **** *  
ARM GAS  C:\Users\z004e6he\AppData\Local\Temp\ccxteeFK.s 			page 3


  88:Generated_Source\PSoC5/rx_isr.c **** *  When defining ISR functions, the CY_ISR and CY_ISR_PROTO macros should be 
  89:Generated_Source\PSoC5/rx_isr.c **** *  used to provide consistent definition across compilers:
  90:Generated_Source\PSoC5/rx_isr.c **** *  
  91:Generated_Source\PSoC5/rx_isr.c **** *  Function definition example:
  92:Generated_Source\PSoC5/rx_isr.c **** *   CY_ISR(MyISR)
  93:Generated_Source\PSoC5/rx_isr.c **** *   {
  94:Generated_Source\PSoC5/rx_isr.c **** *   }
  95:Generated_Source\PSoC5/rx_isr.c **** *   Function prototype example:
  96:Generated_Source\PSoC5/rx_isr.c **** *   CY_ISR_PROTO(MyISR);
  97:Generated_Source\PSoC5/rx_isr.c **** *
  98:Generated_Source\PSoC5/rx_isr.c **** * Parameters:  
  99:Generated_Source\PSoC5/rx_isr.c **** *   address: Address of the ISR to set in the interrupt vector table.
 100:Generated_Source\PSoC5/rx_isr.c **** *
 101:Generated_Source\PSoC5/rx_isr.c **** * Return:
 102:Generated_Source\PSoC5/rx_isr.c **** *   None
 103:Generated_Source\PSoC5/rx_isr.c **** *
 104:Generated_Source\PSoC5/rx_isr.c **** *******************************************************************************/
 105:Generated_Source\PSoC5/rx_isr.c **** void rx_isr_StartEx(cyisraddress address)
 106:Generated_Source\PSoC5/rx_isr.c **** {
 107:Generated_Source\PSoC5/rx_isr.c ****     /* For all we know the interrupt is active. */
 108:Generated_Source\PSoC5/rx_isr.c ****     rx_isr_Disable();
 109:Generated_Source\PSoC5/rx_isr.c **** 
 110:Generated_Source\PSoC5/rx_isr.c ****     /* Set the ISR to point to the rx_isr Interrupt. */
 111:Generated_Source\PSoC5/rx_isr.c ****     rx_isr_SetVector(address);
 112:Generated_Source\PSoC5/rx_isr.c **** 
 113:Generated_Source\PSoC5/rx_isr.c ****     /* Set the priority. */
 114:Generated_Source\PSoC5/rx_isr.c ****     rx_isr_SetPriority((uint8)rx_isr_INTC_PRIOR_NUMBER);
 115:Generated_Source\PSoC5/rx_isr.c **** 
 116:Generated_Source\PSoC5/rx_isr.c ****     /* Enable it. */
 117:Generated_Source\PSoC5/rx_isr.c ****     rx_isr_Enable();
 118:Generated_Source\PSoC5/rx_isr.c **** }
 119:Generated_Source\PSoC5/rx_isr.c **** 
 120:Generated_Source\PSoC5/rx_isr.c **** 
 121:Generated_Source\PSoC5/rx_isr.c **** /*******************************************************************************
 122:Generated_Source\PSoC5/rx_isr.c **** * Function Name: rx_isr_Stop
 123:Generated_Source\PSoC5/rx_isr.c **** ********************************************************************************
 124:Generated_Source\PSoC5/rx_isr.c **** *
 125:Generated_Source\PSoC5/rx_isr.c **** * Summary:
 126:Generated_Source\PSoC5/rx_isr.c **** *   Disables and removes the interrupt.
 127:Generated_Source\PSoC5/rx_isr.c **** *
 128:Generated_Source\PSoC5/rx_isr.c **** * Parameters:  
 129:Generated_Source\PSoC5/rx_isr.c **** *   None
 130:Generated_Source\PSoC5/rx_isr.c **** *
 131:Generated_Source\PSoC5/rx_isr.c **** * Return:
 132:Generated_Source\PSoC5/rx_isr.c **** *   None
 133:Generated_Source\PSoC5/rx_isr.c **** *
 134:Generated_Source\PSoC5/rx_isr.c **** *******************************************************************************/
 135:Generated_Source\PSoC5/rx_isr.c **** void rx_isr_Stop(void)
 136:Generated_Source\PSoC5/rx_isr.c **** {
 137:Generated_Source\PSoC5/rx_isr.c ****     /* Disable this interrupt. */
 138:Generated_Source\PSoC5/rx_isr.c ****     rx_isr_Disable();
 139:Generated_Source\PSoC5/rx_isr.c **** 
 140:Generated_Source\PSoC5/rx_isr.c ****     /* Set the ISR to point to the passive one. */
 141:Generated_Source\PSoC5/rx_isr.c ****     rx_isr_SetVector(&IntDefaultHandler);
 142:Generated_Source\PSoC5/rx_isr.c **** }
 143:Generated_Source\PSoC5/rx_isr.c **** 
 144:Generated_Source\PSoC5/rx_isr.c **** 
ARM GAS  C:\Users\z004e6he\AppData\Local\Temp\ccxteeFK.s 			page 4


 145:Generated_Source\PSoC5/rx_isr.c **** /*******************************************************************************
 146:Generated_Source\PSoC5/rx_isr.c **** * Function Name: rx_isr_Interrupt
 147:Generated_Source\PSoC5/rx_isr.c **** ********************************************************************************
 148:Generated_Source\PSoC5/rx_isr.c **** *
 149:Generated_Source\PSoC5/rx_isr.c **** * Summary:
 150:Generated_Source\PSoC5/rx_isr.c **** *   The default Interrupt Service Routine for rx_isr.
 151:Generated_Source\PSoC5/rx_isr.c **** *
 152:Generated_Source\PSoC5/rx_isr.c **** *   Add custom code between the coments to keep the next version of this file
 153:Generated_Source\PSoC5/rx_isr.c **** *   from over writting your code.
 154:Generated_Source\PSoC5/rx_isr.c **** *
 155:Generated_Source\PSoC5/rx_isr.c **** * Parameters:  
 156:Generated_Source\PSoC5/rx_isr.c **** *
 157:Generated_Source\PSoC5/rx_isr.c **** * Return:
 158:Generated_Source\PSoC5/rx_isr.c **** *   None
 159:Generated_Source\PSoC5/rx_isr.c **** *
 160:Generated_Source\PSoC5/rx_isr.c **** *******************************************************************************/
 161:Generated_Source\PSoC5/rx_isr.c **** CY_ISR(rx_isr_Interrupt)
 162:Generated_Source\PSoC5/rx_isr.c **** {
  28              		.loc 1 162 0
  29              		.cfi_startproc
  30              		@ args = 0, pretend = 0, frame = 0
  31              		@ frame_needed = 0, uses_anonymous_args = 0
  32              		@ link register save eliminated.
 163:Generated_Source\PSoC5/rx_isr.c ****     #ifdef rx_isr_INTERRUPT_INTERRUPT_CALLBACK
 164:Generated_Source\PSoC5/rx_isr.c ****         rx_isr_Interrupt_InterruptCallback();
 165:Generated_Source\PSoC5/rx_isr.c ****     #endif /* rx_isr_INTERRUPT_INTERRUPT_CALLBACK */ 
 166:Generated_Source\PSoC5/rx_isr.c **** 
 167:Generated_Source\PSoC5/rx_isr.c ****     /*  Place your Interrupt code here. */
 168:Generated_Source\PSoC5/rx_isr.c ****     /* `#START rx_isr_Interrupt` */
 169:Generated_Source\PSoC5/rx_isr.c ****     gRX_ISR = true; //set interrupt flag
  33              		.loc 1 169 0
  34 0000 0122     		movs	r2, #1
  35 0002 014B     		ldr	r3, .L2
  36 0004 1A70     		strb	r2, [r3]
  37 0006 7047     		bx	lr
  38              	.L3:
  39              		.align	2
  40              	.L2:
  41 0008 00000000 		.word	gRX_ISR
  42              		.cfi_endproc
  43              	.LFE3:
  44              		.size	rx_isr_Interrupt, .-rx_isr_Interrupt
  45              		.section	.text.rx_isr_SetVector,"ax",%progbits
  46              		.align	2
  47              		.global	rx_isr_SetVector
  48              		.thumb
  49              		.thumb_func
  50              		.type	rx_isr_SetVector, %function
  51              	rx_isr_SetVector:
  52              	.LFB4:
 170:Generated_Source\PSoC5/rx_isr.c ****     
 171:Generated_Source\PSoC5/rx_isr.c ****     /* `#END` */
 172:Generated_Source\PSoC5/rx_isr.c **** }
 173:Generated_Source\PSoC5/rx_isr.c **** 
 174:Generated_Source\PSoC5/rx_isr.c **** 
 175:Generated_Source\PSoC5/rx_isr.c **** /*******************************************************************************
 176:Generated_Source\PSoC5/rx_isr.c **** * Function Name: rx_isr_SetVector
ARM GAS  C:\Users\z004e6he\AppData\Local\Temp\ccxteeFK.s 			page 5


 177:Generated_Source\PSoC5/rx_isr.c **** ********************************************************************************
 178:Generated_Source\PSoC5/rx_isr.c **** *
 179:Generated_Source\PSoC5/rx_isr.c **** * Summary:
 180:Generated_Source\PSoC5/rx_isr.c **** *   Change the ISR vector for the Interrupt. Note calling rx_isr_Start
 181:Generated_Source\PSoC5/rx_isr.c **** *   will override any effect this method would have had. To set the vector 
 182:Generated_Source\PSoC5/rx_isr.c **** *   before the component has been started use rx_isr_StartEx instead.
 183:Generated_Source\PSoC5/rx_isr.c **** * 
 184:Generated_Source\PSoC5/rx_isr.c **** *   When defining ISR functions, the CY_ISR and CY_ISR_PROTO macros should be 
 185:Generated_Source\PSoC5/rx_isr.c **** *   used to provide consistent definition across compilers:
 186:Generated_Source\PSoC5/rx_isr.c **** *
 187:Generated_Source\PSoC5/rx_isr.c **** *   Function definition example:
 188:Generated_Source\PSoC5/rx_isr.c **** *   CY_ISR(MyISR)
 189:Generated_Source\PSoC5/rx_isr.c **** *   {
 190:Generated_Source\PSoC5/rx_isr.c **** *   }
 191:Generated_Source\PSoC5/rx_isr.c **** *
 192:Generated_Source\PSoC5/rx_isr.c **** *   Function prototype example:
 193:Generated_Source\PSoC5/rx_isr.c **** *     CY_ISR_PROTO(MyISR);
 194:Generated_Source\PSoC5/rx_isr.c **** *
 195:Generated_Source\PSoC5/rx_isr.c **** * Parameters:
 196:Generated_Source\PSoC5/rx_isr.c **** *   address: Address of the ISR to set in the interrupt vector table.
 197:Generated_Source\PSoC5/rx_isr.c **** *
 198:Generated_Source\PSoC5/rx_isr.c **** * Return:
 199:Generated_Source\PSoC5/rx_isr.c **** *   None
 200:Generated_Source\PSoC5/rx_isr.c **** *
 201:Generated_Source\PSoC5/rx_isr.c **** *******************************************************************************/
 202:Generated_Source\PSoC5/rx_isr.c **** void rx_isr_SetVector(cyisraddress address)
 203:Generated_Source\PSoC5/rx_isr.c **** {
  53              		.loc 1 203 0
  54              		.cfi_startproc
  55              		@ args = 0, pretend = 0, frame = 0
  56              		@ frame_needed = 0, uses_anonymous_args = 0
  57              		@ link register save eliminated.
  58              	.LVL0:
 204:Generated_Source\PSoC5/rx_isr.c ****     cyisraddress * ramVectorTable;
 205:Generated_Source\PSoC5/rx_isr.c **** 
 206:Generated_Source\PSoC5/rx_isr.c ****     ramVectorTable = (cyisraddress *) *CYINT_VECT_TABLE;
  59              		.loc 1 206 0
  60 0000 014B     		ldr	r3, .L5
  61 0002 1B68     		ldr	r3, [r3]
  62              	.LVL1:
 207:Generated_Source\PSoC5/rx_isr.c **** 
 208:Generated_Source\PSoC5/rx_isr.c ****     ramVectorTable[CYINT_IRQ_BASE + (uint32)rx_isr__INTC_NUMBER] = address;
  63              		.loc 1 208 0
  64 0004 5864     		str	r0, [r3, #68]
  65 0006 7047     		bx	lr
  66              	.L6:
  67              		.align	2
  68              	.L5:
  69 0008 08ED00E0 		.word	-536810232
  70              		.cfi_endproc
  71              	.LFE4:
  72              		.size	rx_isr_SetVector, .-rx_isr_SetVector
  73              		.section	.text.rx_isr_GetVector,"ax",%progbits
  74              		.align	2
  75              		.global	rx_isr_GetVector
  76              		.thumb
  77              		.thumb_func
ARM GAS  C:\Users\z004e6he\AppData\Local\Temp\ccxteeFK.s 			page 6


  78              		.type	rx_isr_GetVector, %function
  79              	rx_isr_GetVector:
  80              	.LFB5:
 209:Generated_Source\PSoC5/rx_isr.c **** }
 210:Generated_Source\PSoC5/rx_isr.c **** 
 211:Generated_Source\PSoC5/rx_isr.c **** 
 212:Generated_Source\PSoC5/rx_isr.c **** /*******************************************************************************
 213:Generated_Source\PSoC5/rx_isr.c **** * Function Name: rx_isr_GetVector
 214:Generated_Source\PSoC5/rx_isr.c **** ********************************************************************************
 215:Generated_Source\PSoC5/rx_isr.c **** *
 216:Generated_Source\PSoC5/rx_isr.c **** * Summary:
 217:Generated_Source\PSoC5/rx_isr.c **** *   Gets the "address" of the current ISR vector for the Interrupt.
 218:Generated_Source\PSoC5/rx_isr.c **** *
 219:Generated_Source\PSoC5/rx_isr.c **** * Parameters:
 220:Generated_Source\PSoC5/rx_isr.c **** *   None
 221:Generated_Source\PSoC5/rx_isr.c **** *
 222:Generated_Source\PSoC5/rx_isr.c **** * Return:
 223:Generated_Source\PSoC5/rx_isr.c **** *   Address of the ISR in the interrupt vector table.
 224:Generated_Source\PSoC5/rx_isr.c **** *
 225:Generated_Source\PSoC5/rx_isr.c **** *******************************************************************************/
 226:Generated_Source\PSoC5/rx_isr.c **** cyisraddress rx_isr_GetVector(void)
 227:Generated_Source\PSoC5/rx_isr.c **** {
  81              		.loc 1 227 0
  82              		.cfi_startproc
  83              		@ args = 0, pretend = 0, frame = 0
  84              		@ frame_needed = 0, uses_anonymous_args = 0
  85              		@ link register save eliminated.
 228:Generated_Source\PSoC5/rx_isr.c ****     cyisraddress * ramVectorTable;
 229:Generated_Source\PSoC5/rx_isr.c **** 
 230:Generated_Source\PSoC5/rx_isr.c ****     ramVectorTable = (cyisraddress *) *CYINT_VECT_TABLE;
  86              		.loc 1 230 0
  87 0000 014B     		ldr	r3, .L8
  88 0002 1B68     		ldr	r3, [r3]
  89              	.LVL2:
 231:Generated_Source\PSoC5/rx_isr.c **** 
 232:Generated_Source\PSoC5/rx_isr.c ****     return ramVectorTable[CYINT_IRQ_BASE + (uint32)rx_isr__INTC_NUMBER];
 233:Generated_Source\PSoC5/rx_isr.c **** }
  90              		.loc 1 233 0
  91 0004 586C     		ldr	r0, [r3, #68]
  92 0006 7047     		bx	lr
  93              	.L9:
  94              		.align	2
  95              	.L8:
  96 0008 08ED00E0 		.word	-536810232
  97              		.cfi_endproc
  98              	.LFE5:
  99              		.size	rx_isr_GetVector, .-rx_isr_GetVector
 100              		.section	.text.rx_isr_SetPriority,"ax",%progbits
 101              		.align	2
 102              		.global	rx_isr_SetPriority
 103              		.thumb
 104              		.thumb_func
 105              		.type	rx_isr_SetPriority, %function
 106              	rx_isr_SetPriority:
 107              	.LFB6:
 234:Generated_Source\PSoC5/rx_isr.c **** 
 235:Generated_Source\PSoC5/rx_isr.c **** 
ARM GAS  C:\Users\z004e6he\AppData\Local\Temp\ccxteeFK.s 			page 7


 236:Generated_Source\PSoC5/rx_isr.c **** /*******************************************************************************
 237:Generated_Source\PSoC5/rx_isr.c **** * Function Name: rx_isr_SetPriority
 238:Generated_Source\PSoC5/rx_isr.c **** ********************************************************************************
 239:Generated_Source\PSoC5/rx_isr.c **** *
 240:Generated_Source\PSoC5/rx_isr.c **** * Summary:
 241:Generated_Source\PSoC5/rx_isr.c **** *   Sets the Priority of the Interrupt. 
 242:Generated_Source\PSoC5/rx_isr.c **** *
 243:Generated_Source\PSoC5/rx_isr.c **** *   Note calling rx_isr_Start or rx_isr_StartEx will 
 244:Generated_Source\PSoC5/rx_isr.c **** *   override any effect this API would have had. This API should only be called
 245:Generated_Source\PSoC5/rx_isr.c **** *   after rx_isr_Start or rx_isr_StartEx has been called. 
 246:Generated_Source\PSoC5/rx_isr.c **** *   To set the initial priority for the component, use the Design-Wide Resources
 247:Generated_Source\PSoC5/rx_isr.c **** *   Interrupt Editor.
 248:Generated_Source\PSoC5/rx_isr.c **** *
 249:Generated_Source\PSoC5/rx_isr.c **** *   Note This API has no effect on Non-maskable interrupt NMI).
 250:Generated_Source\PSoC5/rx_isr.c **** *
 251:Generated_Source\PSoC5/rx_isr.c **** * Parameters:
 252:Generated_Source\PSoC5/rx_isr.c **** *   priority: Priority of the interrupt, 0 being the highest priority
 253:Generated_Source\PSoC5/rx_isr.c **** *             PSoC 3 and PSoC 5LP: Priority is from 0 to 7.
 254:Generated_Source\PSoC5/rx_isr.c **** *             PSoC 4: Priority is from 0 to 3.
 255:Generated_Source\PSoC5/rx_isr.c **** *
 256:Generated_Source\PSoC5/rx_isr.c **** * Return:
 257:Generated_Source\PSoC5/rx_isr.c **** *   None
 258:Generated_Source\PSoC5/rx_isr.c **** *
 259:Generated_Source\PSoC5/rx_isr.c **** *******************************************************************************/
 260:Generated_Source\PSoC5/rx_isr.c **** void rx_isr_SetPriority(uint8 priority)
 261:Generated_Source\PSoC5/rx_isr.c **** {
 108              		.loc 1 261 0
 109              		.cfi_startproc
 110              		@ args = 0, pretend = 0, frame = 0
 111              		@ frame_needed = 0, uses_anonymous_args = 0
 112              		@ link register save eliminated.
 113              	.LVL3:
 262:Generated_Source\PSoC5/rx_isr.c ****     *rx_isr_INTC_PRIOR = priority << 5;
 114              		.loc 1 262 0
 115 0000 4001     		lsls	r0, r0, #5
 116              	.LVL4:
 117 0002 C0B2     		uxtb	r0, r0
 118 0004 014B     		ldr	r3, .L11
 119 0006 1870     		strb	r0, [r3]
 120 0008 7047     		bx	lr
 121              	.L12:
 122 000a 00BF     		.align	2
 123              	.L11:
 124 000c 01E400E0 		.word	-536812543
 125              		.cfi_endproc
 126              	.LFE6:
 127              		.size	rx_isr_SetPriority, .-rx_isr_SetPriority
 128              		.section	.text.rx_isr_GetPriority,"ax",%progbits
 129              		.align	2
 130              		.global	rx_isr_GetPriority
 131              		.thumb
 132              		.thumb_func
 133              		.type	rx_isr_GetPriority, %function
 134              	rx_isr_GetPriority:
 135              	.LFB7:
 263:Generated_Source\PSoC5/rx_isr.c **** }
 264:Generated_Source\PSoC5/rx_isr.c **** 
ARM GAS  C:\Users\z004e6he\AppData\Local\Temp\ccxteeFK.s 			page 8


 265:Generated_Source\PSoC5/rx_isr.c **** 
 266:Generated_Source\PSoC5/rx_isr.c **** /*******************************************************************************
 267:Generated_Source\PSoC5/rx_isr.c **** * Function Name: rx_isr_GetPriority
 268:Generated_Source\PSoC5/rx_isr.c **** ********************************************************************************
 269:Generated_Source\PSoC5/rx_isr.c **** *
 270:Generated_Source\PSoC5/rx_isr.c **** * Summary:
 271:Generated_Source\PSoC5/rx_isr.c **** *   Gets the Priority of the Interrupt.
 272:Generated_Source\PSoC5/rx_isr.c **** *
 273:Generated_Source\PSoC5/rx_isr.c **** * Parameters:
 274:Generated_Source\PSoC5/rx_isr.c **** *   None
 275:Generated_Source\PSoC5/rx_isr.c **** *
 276:Generated_Source\PSoC5/rx_isr.c **** * Return:
 277:Generated_Source\PSoC5/rx_isr.c **** *   Priority of the interrupt, 0 being the highest priority
 278:Generated_Source\PSoC5/rx_isr.c **** *    PSoC 3 and PSoC 5LP: Priority is from 0 to 7.
 279:Generated_Source\PSoC5/rx_isr.c **** *    PSoC 4: Priority is from 0 to 3.
 280:Generated_Source\PSoC5/rx_isr.c **** *
 281:Generated_Source\PSoC5/rx_isr.c **** *******************************************************************************/
 282:Generated_Source\PSoC5/rx_isr.c **** uint8 rx_isr_GetPriority(void)
 283:Generated_Source\PSoC5/rx_isr.c **** {
 136              		.loc 1 283 0
 137              		.cfi_startproc
 138              		@ args = 0, pretend = 0, frame = 0
 139              		@ frame_needed = 0, uses_anonymous_args = 0
 140              		@ link register save eliminated.
 284:Generated_Source\PSoC5/rx_isr.c ****     uint8 priority;
 285:Generated_Source\PSoC5/rx_isr.c **** 
 286:Generated_Source\PSoC5/rx_isr.c **** 
 287:Generated_Source\PSoC5/rx_isr.c ****     priority = *rx_isr_INTC_PRIOR >> 5;
 141              		.loc 1 287 0
 142 0000 014B     		ldr	r3, .L14
 143 0002 1878     		ldrb	r0, [r3]	@ zero_extendqisi2
 144              	.LVL5:
 288:Generated_Source\PSoC5/rx_isr.c **** 
 289:Generated_Source\PSoC5/rx_isr.c ****     return priority;
 290:Generated_Source\PSoC5/rx_isr.c **** }
 145              		.loc 1 290 0
 146 0004 4009     		lsrs	r0, r0, #5
 147              	.LVL6:
 148 0006 7047     		bx	lr
 149              	.L15:
 150              		.align	2
 151              	.L14:
 152 0008 01E400E0 		.word	-536812543
 153              		.cfi_endproc
 154              	.LFE7:
 155              		.size	rx_isr_GetPriority, .-rx_isr_GetPriority
 156              		.section	.text.rx_isr_Enable,"ax",%progbits
 157              		.align	2
 158              		.global	rx_isr_Enable
 159              		.thumb
 160              		.thumb_func
 161              		.type	rx_isr_Enable, %function
 162              	rx_isr_Enable:
 163              	.LFB8:
 291:Generated_Source\PSoC5/rx_isr.c **** 
 292:Generated_Source\PSoC5/rx_isr.c **** 
 293:Generated_Source\PSoC5/rx_isr.c **** /*******************************************************************************
ARM GAS  C:\Users\z004e6he\AppData\Local\Temp\ccxteeFK.s 			page 9


 294:Generated_Source\PSoC5/rx_isr.c **** * Function Name: rx_isr_Enable
 295:Generated_Source\PSoC5/rx_isr.c **** ********************************************************************************
 296:Generated_Source\PSoC5/rx_isr.c **** *
 297:Generated_Source\PSoC5/rx_isr.c **** * Summary:
 298:Generated_Source\PSoC5/rx_isr.c **** *   Enables the interrupt to the interrupt controller. Do not call this function
 299:Generated_Source\PSoC5/rx_isr.c **** *   unless ISR_Start() has been called or the functionality of the ISR_Start() 
 300:Generated_Source\PSoC5/rx_isr.c **** *   function, which sets the vector and the priority, has been called.
 301:Generated_Source\PSoC5/rx_isr.c **** *
 302:Generated_Source\PSoC5/rx_isr.c **** * Parameters:
 303:Generated_Source\PSoC5/rx_isr.c **** *   None
 304:Generated_Source\PSoC5/rx_isr.c **** *
 305:Generated_Source\PSoC5/rx_isr.c **** * Return:
 306:Generated_Source\PSoC5/rx_isr.c **** *   None
 307:Generated_Source\PSoC5/rx_isr.c **** *
 308:Generated_Source\PSoC5/rx_isr.c **** *******************************************************************************/
 309:Generated_Source\PSoC5/rx_isr.c **** void rx_isr_Enable(void)
 310:Generated_Source\PSoC5/rx_isr.c **** {
 164              		.loc 1 310 0
 165              		.cfi_startproc
 166              		@ args = 0, pretend = 0, frame = 0
 167              		@ frame_needed = 0, uses_anonymous_args = 0
 168              		@ link register save eliminated.
 311:Generated_Source\PSoC5/rx_isr.c ****     /* Enable the general interrupt. */
 312:Generated_Source\PSoC5/rx_isr.c ****     *rx_isr_INTC_SET_EN = rx_isr__INTC_MASK;
 169              		.loc 1 312 0
 170 0000 0222     		movs	r2, #2
 171 0002 014B     		ldr	r3, .L17
 172 0004 1A60     		str	r2, [r3]
 173 0006 7047     		bx	lr
 174              	.L18:
 175              		.align	2
 176              	.L17:
 177 0008 00E100E0 		.word	-536813312
 178              		.cfi_endproc
 179              	.LFE8:
 180              		.size	rx_isr_Enable, .-rx_isr_Enable
 181              		.section	.text.rx_isr_GetState,"ax",%progbits
 182              		.align	2
 183              		.global	rx_isr_GetState
 184              		.thumb
 185              		.thumb_func
 186              		.type	rx_isr_GetState, %function
 187              	rx_isr_GetState:
 188              	.LFB9:
 313:Generated_Source\PSoC5/rx_isr.c **** }
 314:Generated_Source\PSoC5/rx_isr.c **** 
 315:Generated_Source\PSoC5/rx_isr.c **** 
 316:Generated_Source\PSoC5/rx_isr.c **** /*******************************************************************************
 317:Generated_Source\PSoC5/rx_isr.c **** * Function Name: rx_isr_GetState
 318:Generated_Source\PSoC5/rx_isr.c **** ********************************************************************************
 319:Generated_Source\PSoC5/rx_isr.c **** *
 320:Generated_Source\PSoC5/rx_isr.c **** * Summary:
 321:Generated_Source\PSoC5/rx_isr.c **** *   Gets the state (enabled, disabled) of the Interrupt.
 322:Generated_Source\PSoC5/rx_isr.c **** *
 323:Generated_Source\PSoC5/rx_isr.c **** * Parameters:
 324:Generated_Source\PSoC5/rx_isr.c **** *   None
 325:Generated_Source\PSoC5/rx_isr.c **** *
ARM GAS  C:\Users\z004e6he\AppData\Local\Temp\ccxteeFK.s 			page 10


 326:Generated_Source\PSoC5/rx_isr.c **** * Return:
 327:Generated_Source\PSoC5/rx_isr.c **** *   1 if enabled, 0 if disabled.
 328:Generated_Source\PSoC5/rx_isr.c **** *
 329:Generated_Source\PSoC5/rx_isr.c **** *******************************************************************************/
 330:Generated_Source\PSoC5/rx_isr.c **** uint8 rx_isr_GetState(void)
 331:Generated_Source\PSoC5/rx_isr.c **** {
 189              		.loc 1 331 0
 190              		.cfi_startproc
 191              		@ args = 0, pretend = 0, frame = 0
 192              		@ frame_needed = 0, uses_anonymous_args = 0
 193              		@ link register save eliminated.
 332:Generated_Source\PSoC5/rx_isr.c ****     /* Get the state of the general interrupt. */
 333:Generated_Source\PSoC5/rx_isr.c ****     return ((*rx_isr_INTC_SET_EN & (uint32)rx_isr__INTC_MASK) != 0u) ? 1u:0u;
 194              		.loc 1 333 0
 195 0000 044B     		ldr	r3, .L22
 196 0002 1B68     		ldr	r3, [r3]
 197 0004 13F0020F 		tst	r3, #2
 198 0008 01D0     		beq	.L21
 199 000a 0120     		movs	r0, #1
 200 000c 7047     		bx	lr
 201              	.L21:
 202 000e 0020     		movs	r0, #0
 334:Generated_Source\PSoC5/rx_isr.c **** }
 203              		.loc 1 334 0
 204 0010 7047     		bx	lr
 205              	.L23:
 206 0012 00BF     		.align	2
 207              	.L22:
 208 0014 00E100E0 		.word	-536813312
 209              		.cfi_endproc
 210              	.LFE9:
 211              		.size	rx_isr_GetState, .-rx_isr_GetState
 212              		.section	.text.rx_isr_Disable,"ax",%progbits
 213              		.align	2
 214              		.global	rx_isr_Disable
 215              		.thumb
 216              		.thumb_func
 217              		.type	rx_isr_Disable, %function
 218              	rx_isr_Disable:
 219              	.LFB10:
 335:Generated_Source\PSoC5/rx_isr.c **** 
 336:Generated_Source\PSoC5/rx_isr.c **** 
 337:Generated_Source\PSoC5/rx_isr.c **** /*******************************************************************************
 338:Generated_Source\PSoC5/rx_isr.c **** * Function Name: rx_isr_Disable
 339:Generated_Source\PSoC5/rx_isr.c **** ********************************************************************************
 340:Generated_Source\PSoC5/rx_isr.c **** *
 341:Generated_Source\PSoC5/rx_isr.c **** * Summary:
 342:Generated_Source\PSoC5/rx_isr.c **** *   Disables the Interrupt in the interrupt controller.
 343:Generated_Source\PSoC5/rx_isr.c **** *
 344:Generated_Source\PSoC5/rx_isr.c **** * Parameters:
 345:Generated_Source\PSoC5/rx_isr.c **** *   None
 346:Generated_Source\PSoC5/rx_isr.c **** *
 347:Generated_Source\PSoC5/rx_isr.c **** * Return:
 348:Generated_Source\PSoC5/rx_isr.c **** *   None
 349:Generated_Source\PSoC5/rx_isr.c **** *
 350:Generated_Source\PSoC5/rx_isr.c **** *******************************************************************************/
 351:Generated_Source\PSoC5/rx_isr.c **** void rx_isr_Disable(void)
ARM GAS  C:\Users\z004e6he\AppData\Local\Temp\ccxteeFK.s 			page 11


 352:Generated_Source\PSoC5/rx_isr.c **** {
 220              		.loc 1 352 0
 221              		.cfi_startproc
 222              		@ args = 0, pretend = 0, frame = 0
 223              		@ frame_needed = 0, uses_anonymous_args = 0
 224              		@ link register save eliminated.
 353:Generated_Source\PSoC5/rx_isr.c ****     /* Disable the general interrupt. */
 354:Generated_Source\PSoC5/rx_isr.c ****     *rx_isr_INTC_CLR_EN = rx_isr__INTC_MASK;
 225              		.loc 1 354 0
 226 0000 0222     		movs	r2, #2
 227 0002 014B     		ldr	r3, .L25
 228 0004 1A60     		str	r2, [r3]
 229 0006 7047     		bx	lr
 230              	.L26:
 231              		.align	2
 232              	.L25:
 233 0008 80E100E0 		.word	-536813184
 234              		.cfi_endproc
 235              	.LFE10:
 236              		.size	rx_isr_Disable, .-rx_isr_Disable
 237              		.section	.text.rx_isr_Start,"ax",%progbits
 238              		.align	2
 239              		.global	rx_isr_Start
 240              		.thumb
 241              		.thumb_func
 242              		.type	rx_isr_Start, %function
 243              	rx_isr_Start:
 244              	.LFB0:
  63:Generated_Source\PSoC5/rx_isr.c ****     /* For all we know the interrupt is active. */
 245              		.loc 1 63 0
 246              		.cfi_startproc
 247              		@ args = 0, pretend = 0, frame = 0
 248              		@ frame_needed = 0, uses_anonymous_args = 0
 249 0000 08B5     		push	{r3, lr}
 250              		.cfi_def_cfa_offset 8
 251              		.cfi_offset 3, -8
 252              		.cfi_offset 14, -4
  65:Generated_Source\PSoC5/rx_isr.c **** 
 253              		.loc 1 65 0
 254 0002 FFF7FEFF 		bl	rx_isr_Disable
 255              	.LVL7:
  68:Generated_Source\PSoC5/rx_isr.c **** 
 256              		.loc 1 68 0
 257 0006 0448     		ldr	r0, .L29
 258 0008 FFF7FEFF 		bl	rx_isr_SetVector
 259              	.LVL8:
  71:Generated_Source\PSoC5/rx_isr.c **** 
 260              		.loc 1 71 0
 261 000c 0720     		movs	r0, #7
 262 000e FFF7FEFF 		bl	rx_isr_SetPriority
 263              	.LVL9:
  74:Generated_Source\PSoC5/rx_isr.c **** }
 264              		.loc 1 74 0
 265 0012 FFF7FEFF 		bl	rx_isr_Enable
 266              	.LVL10:
 267 0016 08BD     		pop	{r3, pc}
 268              	.L30:
ARM GAS  C:\Users\z004e6he\AppData\Local\Temp\ccxteeFK.s 			page 12


 269              		.align	2
 270              	.L29:
 271 0018 00000000 		.word	rx_isr_Interrupt
 272              		.cfi_endproc
 273              	.LFE0:
 274              		.size	rx_isr_Start, .-rx_isr_Start
 275              		.section	.text.rx_isr_StartEx,"ax",%progbits
 276              		.align	2
 277              		.global	rx_isr_StartEx
 278              		.thumb
 279              		.thumb_func
 280              		.type	rx_isr_StartEx, %function
 281              	rx_isr_StartEx:
 282              	.LFB1:
 106:Generated_Source\PSoC5/rx_isr.c ****     /* For all we know the interrupt is active. */
 283              		.loc 1 106 0
 284              		.cfi_startproc
 285              		@ args = 0, pretend = 0, frame = 0
 286              		@ frame_needed = 0, uses_anonymous_args = 0
 287              	.LVL11:
 288 0000 10B5     		push	{r4, lr}
 289              		.cfi_def_cfa_offset 8
 290              		.cfi_offset 4, -8
 291              		.cfi_offset 14, -4
 292 0002 0446     		mov	r4, r0
 108:Generated_Source\PSoC5/rx_isr.c **** 
 293              		.loc 1 108 0
 294 0004 FFF7FEFF 		bl	rx_isr_Disable
 295              	.LVL12:
 111:Generated_Source\PSoC5/rx_isr.c **** 
 296              		.loc 1 111 0
 297 0008 2046     		mov	r0, r4
 298 000a FFF7FEFF 		bl	rx_isr_SetVector
 299              	.LVL13:
 114:Generated_Source\PSoC5/rx_isr.c **** 
 300              		.loc 1 114 0
 301 000e 0720     		movs	r0, #7
 302 0010 FFF7FEFF 		bl	rx_isr_SetPriority
 303              	.LVL14:
 117:Generated_Source\PSoC5/rx_isr.c **** }
 304              		.loc 1 117 0
 305 0014 FFF7FEFF 		bl	rx_isr_Enable
 306              	.LVL15:
 307 0018 10BD     		pop	{r4, pc}
 308              		.cfi_endproc
 309              	.LFE1:
 310              		.size	rx_isr_StartEx, .-rx_isr_StartEx
 311 001a 00BF     		.section	.text.rx_isr_Stop,"ax",%progbits
 312              		.align	2
 313              		.global	rx_isr_Stop
 314              		.thumb
 315              		.thumb_func
 316              		.type	rx_isr_Stop, %function
 317              	rx_isr_Stop:
 318              	.LFB2:
 136:Generated_Source\PSoC5/rx_isr.c ****     /* Disable this interrupt. */
 319              		.loc 1 136 0
ARM GAS  C:\Users\z004e6he\AppData\Local\Temp\ccxteeFK.s 			page 13


 320              		.cfi_startproc
 321              		@ args = 0, pretend = 0, frame = 0
 322              		@ frame_needed = 0, uses_anonymous_args = 0
 323 0000 08B5     		push	{r3, lr}
 324              		.cfi_def_cfa_offset 8
 325              		.cfi_offset 3, -8
 326              		.cfi_offset 14, -4
 138:Generated_Source\PSoC5/rx_isr.c **** 
 327              		.loc 1 138 0
 328 0002 FFF7FEFF 		bl	rx_isr_Disable
 329              	.LVL16:
 141:Generated_Source\PSoC5/rx_isr.c **** }
 330              		.loc 1 141 0
 331 0006 0248     		ldr	r0, .L35
 332 0008 FFF7FEFF 		bl	rx_isr_SetVector
 333              	.LVL17:
 334 000c 08BD     		pop	{r3, pc}
 335              	.L36:
 336 000e 00BF     		.align	2
 337              	.L35:
 338 0010 00000000 		.word	IntDefaultHandler
 339              		.cfi_endproc
 340              	.LFE2:
 341              		.size	rx_isr_Stop, .-rx_isr_Stop
 342              		.section	.text.rx_isr_SetPending,"ax",%progbits
 343              		.align	2
 344              		.global	rx_isr_SetPending
 345              		.thumb
 346              		.thumb_func
 347              		.type	rx_isr_SetPending, %function
 348              	rx_isr_SetPending:
 349              	.LFB11:
 355:Generated_Source\PSoC5/rx_isr.c **** }
 356:Generated_Source\PSoC5/rx_isr.c **** 
 357:Generated_Source\PSoC5/rx_isr.c **** 
 358:Generated_Source\PSoC5/rx_isr.c **** /*******************************************************************************
 359:Generated_Source\PSoC5/rx_isr.c **** * Function Name: rx_isr_SetPending
 360:Generated_Source\PSoC5/rx_isr.c **** ********************************************************************************
 361:Generated_Source\PSoC5/rx_isr.c **** *
 362:Generated_Source\PSoC5/rx_isr.c **** * Summary:
 363:Generated_Source\PSoC5/rx_isr.c **** *   Causes the Interrupt to enter the pending state, a software method of
 364:Generated_Source\PSoC5/rx_isr.c **** *   generating the interrupt.
 365:Generated_Source\PSoC5/rx_isr.c **** *
 366:Generated_Source\PSoC5/rx_isr.c **** * Parameters:
 367:Generated_Source\PSoC5/rx_isr.c **** *   None
 368:Generated_Source\PSoC5/rx_isr.c **** *
 369:Generated_Source\PSoC5/rx_isr.c **** * Return:
 370:Generated_Source\PSoC5/rx_isr.c **** *   None
 371:Generated_Source\PSoC5/rx_isr.c **** *
 372:Generated_Source\PSoC5/rx_isr.c **** * Side Effects:
 373:Generated_Source\PSoC5/rx_isr.c **** *   If interrupts are enabled and the interrupt is set up properly, the ISR is
 374:Generated_Source\PSoC5/rx_isr.c **** *   entered (depending on the priority of this interrupt and other pending 
 375:Generated_Source\PSoC5/rx_isr.c **** *   interrupts).
 376:Generated_Source\PSoC5/rx_isr.c **** *
 377:Generated_Source\PSoC5/rx_isr.c **** *******************************************************************************/
 378:Generated_Source\PSoC5/rx_isr.c **** void rx_isr_SetPending(void)
 379:Generated_Source\PSoC5/rx_isr.c **** {
ARM GAS  C:\Users\z004e6he\AppData\Local\Temp\ccxteeFK.s 			page 14


 350              		.loc 1 379 0
 351              		.cfi_startproc
 352              		@ args = 0, pretend = 0, frame = 0
 353              		@ frame_needed = 0, uses_anonymous_args = 0
 354              		@ link register save eliminated.
 380:Generated_Source\PSoC5/rx_isr.c ****     *rx_isr_INTC_SET_PD = rx_isr__INTC_MASK;
 355              		.loc 1 380 0
 356 0000 0222     		movs	r2, #2
 357 0002 014B     		ldr	r3, .L38
 358 0004 1A60     		str	r2, [r3]
 359 0006 7047     		bx	lr
 360              	.L39:
 361              		.align	2
 362              	.L38:
 363 0008 00E200E0 		.word	-536813056
 364              		.cfi_endproc
 365              	.LFE11:
 366              		.size	rx_isr_SetPending, .-rx_isr_SetPending
 367              		.section	.text.rx_isr_ClearPending,"ax",%progbits
 368              		.align	2
 369              		.global	rx_isr_ClearPending
 370              		.thumb
 371              		.thumb_func
 372              		.type	rx_isr_ClearPending, %function
 373              	rx_isr_ClearPending:
 374              	.LFB12:
 381:Generated_Source\PSoC5/rx_isr.c **** }
 382:Generated_Source\PSoC5/rx_isr.c **** 
 383:Generated_Source\PSoC5/rx_isr.c **** 
 384:Generated_Source\PSoC5/rx_isr.c **** /*******************************************************************************
 385:Generated_Source\PSoC5/rx_isr.c **** * Function Name: rx_isr_ClearPending
 386:Generated_Source\PSoC5/rx_isr.c **** ********************************************************************************
 387:Generated_Source\PSoC5/rx_isr.c **** *
 388:Generated_Source\PSoC5/rx_isr.c **** * Summary:
 389:Generated_Source\PSoC5/rx_isr.c **** *   Clears a pending interrupt in the interrupt controller.
 390:Generated_Source\PSoC5/rx_isr.c **** *
 391:Generated_Source\PSoC5/rx_isr.c **** *   Note Some interrupt sources are clear-on-read and require the block 
 392:Generated_Source\PSoC5/rx_isr.c **** *   interrupt/status register to be read/cleared with the appropriate block API 
 393:Generated_Source\PSoC5/rx_isr.c **** *   (GPIO, UART, and so on). Otherwise the ISR will continue to remain in 
 394:Generated_Source\PSoC5/rx_isr.c **** *   pending state even though the interrupt itself is cleared using this API.
 395:Generated_Source\PSoC5/rx_isr.c **** *
 396:Generated_Source\PSoC5/rx_isr.c **** * Parameters:
 397:Generated_Source\PSoC5/rx_isr.c **** *   None
 398:Generated_Source\PSoC5/rx_isr.c **** *
 399:Generated_Source\PSoC5/rx_isr.c **** * Return:
 400:Generated_Source\PSoC5/rx_isr.c **** *   None
 401:Generated_Source\PSoC5/rx_isr.c **** *
 402:Generated_Source\PSoC5/rx_isr.c **** *******************************************************************************/
 403:Generated_Source\PSoC5/rx_isr.c **** void rx_isr_ClearPending(void)
 404:Generated_Source\PSoC5/rx_isr.c **** {
 375              		.loc 1 404 0
 376              		.cfi_startproc
 377              		@ args = 0, pretend = 0, frame = 0
 378              		@ frame_needed = 0, uses_anonymous_args = 0
 379              		@ link register save eliminated.
 405:Generated_Source\PSoC5/rx_isr.c ****     *rx_isr_INTC_CLR_PD = rx_isr__INTC_MASK;
 380              		.loc 1 405 0
ARM GAS  C:\Users\z004e6he\AppData\Local\Temp\ccxteeFK.s 			page 15


 381 0000 0222     		movs	r2, #2
 382 0002 014B     		ldr	r3, .L41
 383 0004 1A60     		str	r2, [r3]
 384 0006 7047     		bx	lr
 385              	.L42:
 386              		.align	2
 387              	.L41:
 388 0008 80E200E0 		.word	-536812928
 389              		.cfi_endproc
 390              	.LFE12:
 391              		.size	rx_isr_ClearPending, .-rx_isr_ClearPending
 392              		.text
 393              	.Letext0:
 394              		.file 2 "Generated_Source\\PSoC5/cytypes.h"