ARM GAS  C:\Users\z004e6he\AppData\Local\Temp\cczjiDkw.s 			page 1


   1              		.syntax unified
   2              		.cpu cortex-m3
   3              		.fpu softvfp
   4              		.eabi_attribute 20, 1
   5              		.eabi_attribute 21, 1
   6              		.eabi_attribute 23, 3
   7              		.eabi_attribute 24, 1
   8              		.eabi_attribute 25, 1
   9              		.eabi_attribute 26, 1
  10              		.eabi_attribute 30, 6
  11              		.eabi_attribute 34, 1
  12              		.eabi_attribute 18, 4
  13              		.thumb
  14              		.syntax unified
  15              		.file	"OneWire.c"
  16              		.text
  17              	.Ltext0:
  18              		.cfi_sections	.debug_frame
  19              		.section	.text.ResetBus,"ax",%progbits
  20              		.align	2
  21              		.global	ResetBus
  22              		.thumb
  23              		.thumb_func
  24              		.type	ResetBus, %function
  25              	ResetBus:
  26              	.LFB63:
  27              		.file 1 "OneWire.c"
   1:OneWire.c     **** /* ========================================
   2:OneWire.c     ****  *
   3:OneWire.c     ****  * Copyright YOUR COMPANY, THE YEAR
   4:OneWire.c     ****  * All Rights Reserved
   5:OneWire.c     ****  * UNPUBLISHED, LICENSED SOFTWARE.
   6:OneWire.c     ****  *
   7:OneWire.c     ****  * CONFIDENTIAL AND PROPRIETARY INFORMATION
   8:OneWire.c     ****  * WHICH IS THE PROPERTY OF your company.
   9:OneWire.c     ****  *
  10:OneWire.c     ****  * ========================================
  11:OneWire.c     **** */
  12:OneWire.c     **** 
  13:OneWire.c     **** #include "OneWire.h"
  14:OneWire.c     **** 
  15:OneWire.c     **** int ResetBus(){
  28              		.loc 1 15 0
  29              		.cfi_startproc
  30              		@ args = 0, pretend = 0, frame = 8
  31              		@ frame_needed = 1, uses_anonymous_args = 0
  32 0000 80B5     		push	{r7, lr}
  33              		.cfi_def_cfa_offset 8
  34              		.cfi_offset 7, -8
  35              		.cfi_offset 14, -4
  36 0002 82B0     		sub	sp, sp, #8
  37              		.cfi_def_cfa_offset 16
  38 0004 00AF     		add	r7, sp, #0
  39              		.cfi_def_cfa_register 7
  16:OneWire.c     ****     int returnValue = 0;
  40              		.loc 1 16 0
  41 0006 0023     		movs	r3, #0
ARM GAS  C:\Users\z004e6he\AppData\Local\Temp\cczjiDkw.s 			page 2


  42 0008 7B60     		str	r3, [r7, #4]
  17:OneWire.c     ****     onewire_pin_Write(LOW);
  43              		.loc 1 17 0
  44 000a 0020     		movs	r0, #0
  45 000c FFF7FEFF 		bl	onewire_pin_Write
  18:OneWire.c     ****     CyDelayUs(WAIT_H);
  46              		.loc 1 18 0
  47 0010 4FF4F070 		mov	r0, #480
  48 0014 FFF7FEFF 		bl	CyDelayUs
  19:OneWire.c     ****     onewire_pin_Write(HIGH);
  49              		.loc 1 19 0
  50 0018 0120     		movs	r0, #1
  51 001a FFF7FEFF 		bl	onewire_pin_Write
  20:OneWire.c     ****     CyDelayUs(WAIT_I);
  52              		.loc 1 20 0
  53 001e 4620     		movs	r0, #70
  54 0020 FFF7FEFF 		bl	CyDelayUs
  21:OneWire.c     ****     returnValue = onewire_pin_Read() ^ 0x01;
  55              		.loc 1 21 0
  56 0024 FFF7FEFF 		bl	onewire_pin_Read
  57 0028 0346     		mov	r3, r0
  58 002a 83F00103 		eor	r3, r3, #1
  59 002e DBB2     		uxtb	r3, r3
  60 0030 7B60     		str	r3, [r7, #4]
  22:OneWire.c     ****     CyDelayUs(WAIT_J);
  61              		.loc 1 22 0
  62 0032 4FF4CD70 		mov	r0, #410
  63 0036 FFF7FEFF 		bl	CyDelayUs
  23:OneWire.c     ****     return(returnValue);
  64              		.loc 1 23 0
  65 003a 7B68     		ldr	r3, [r7, #4]
  24:OneWire.c     **** }
  66              		.loc 1 24 0
  67 003c 1846     		mov	r0, r3
  68 003e 0837     		adds	r7, r7, #8
  69              		.cfi_def_cfa_offset 8
  70 0040 BD46     		mov	sp, r7
  71              		.cfi_def_cfa_register 13
  72              		@ sp needed
  73 0042 80BD     		pop	{r7, pc}
  74              		.cfi_endproc
  75              	.LFE63:
  76              		.size	ResetBus, .-ResetBus
  77              		.section	.text.WriteBit,"ax",%progbits
  78              		.align	2
  79              		.global	WriteBit
  80              		.thumb
  81              		.thumb_func
  82              		.type	WriteBit, %function
  83              	WriteBit:
  84              	.LFB64:
  25:OneWire.c     **** 
  26:OneWire.c     **** void WriteBit(int message){
  85              		.loc 1 26 0
  86              		.cfi_startproc
  87              		@ args = 0, pretend = 0, frame = 8
  88              		@ frame_needed = 1, uses_anonymous_args = 0
ARM GAS  C:\Users\z004e6he\AppData\Local\Temp\cczjiDkw.s 			page 3


  89 0000 80B5     		push	{r7, lr}
  90              		.cfi_def_cfa_offset 8
  91              		.cfi_offset 7, -8
  92              		.cfi_offset 14, -4
  93 0002 82B0     		sub	sp, sp, #8
  94              		.cfi_def_cfa_offset 16
  95 0004 00AF     		add	r7, sp, #0
  96              		.cfi_def_cfa_register 7
  97 0006 7860     		str	r0, [r7, #4]
  27:OneWire.c     ****     onewire_pin_Write(LOW);       
  98              		.loc 1 27 0
  99 0008 0020     		movs	r0, #0
 100 000a FFF7FEFF 		bl	onewire_pin_Write
  28:OneWire.c     ****     if(message == HIGH){
 101              		.loc 1 28 0
 102 000e 7B68     		ldr	r3, [r7, #4]
 103 0010 012B     		cmp	r3, #1
 104 0012 09D1     		bne	.L4
  29:OneWire.c     ****         CyDelayUs(WAIT_A); //1 write
 105              		.loc 1 29 0
 106 0014 0620     		movs	r0, #6
 107 0016 FFF7FEFF 		bl	CyDelayUs
  30:OneWire.c     ****         onewire_pin_Write(HIGH);
 108              		.loc 1 30 0
 109 001a 0120     		movs	r0, #1
 110 001c FFF7FEFF 		bl	onewire_pin_Write
  31:OneWire.c     ****         CyDelayUs(WAIT_B);
 111              		.loc 1 31 0
 112 0020 4020     		movs	r0, #64
 113 0022 FFF7FEFF 		bl	CyDelayUs
  32:OneWire.c     ****     }else{     		    
  33:OneWire.c     ****         CyDelayUs(WAIT_C); //0 write
  34:OneWire.c     ****         onewire_pin_Write(HIGH);
  35:OneWire.c     ****         CyDelayUs(WAIT_D);
  36:OneWire.c     ****     }
  37:OneWire.c     **** }
 114              		.loc 1 37 0
 115 0026 08E0     		b	.L6
 116              	.L4:
  33:OneWire.c     ****         onewire_pin_Write(HIGH);
 117              		.loc 1 33 0
 118 0028 3C20     		movs	r0, #60
 119 002a FFF7FEFF 		bl	CyDelayUs
  34:OneWire.c     ****         CyDelayUs(WAIT_D);
 120              		.loc 1 34 0
 121 002e 0120     		movs	r0, #1
 122 0030 FFF7FEFF 		bl	onewire_pin_Write
  35:OneWire.c     ****     }
 123              		.loc 1 35 0
 124 0034 0A20     		movs	r0, #10
 125 0036 FFF7FEFF 		bl	CyDelayUs
 126              	.L6:
 127              		.loc 1 37 0
 128 003a 00BF     		nop
 129 003c 0837     		adds	r7, r7, #8
 130              		.cfi_def_cfa_offset 8
 131 003e BD46     		mov	sp, r7
ARM GAS  C:\Users\z004e6he\AppData\Local\Temp\cczjiDkw.s 			page 4


 132              		.cfi_def_cfa_register 13
 133              		@ sp needed
 134 0040 80BD     		pop	{r7, pc}
 135              		.cfi_endproc
 136              	.LFE64:
 137              		.size	WriteBit, .-WriteBit
 138 0042 00BF     		.section	.text.WriteByte,"ax",%progbits
 139              		.align	2
 140              		.global	WriteByte
 141              		.thumb
 142              		.thumb_func
 143              		.type	WriteByte, %function
 144              	WriteByte:
 145              	.LFB65:
  38:OneWire.c     **** 
  39:OneWire.c     **** void WriteByte(int message){ 
 146              		.loc 1 39 0
 147              		.cfi_startproc
 148              		@ args = 0, pretend = 0, frame = 16
 149              		@ frame_needed = 1, uses_anonymous_args = 0
 150 0000 80B5     		push	{r7, lr}
 151              		.cfi_def_cfa_offset 8
 152              		.cfi_offset 7, -8
 153              		.cfi_offset 14, -4
 154 0002 84B0     		sub	sp, sp, #16
 155              		.cfi_def_cfa_offset 24
 156 0004 00AF     		add	r7, sp, #0
 157              		.cfi_def_cfa_register 7
 158 0006 7860     		str	r0, [r7, #4]
 159              	.LBB2:
  40:OneWire.c     ****     for (uint8 shiftcount = 0; shiftcount <= 7; shiftcount++) {
 160              		.loc 1 40 0
 161 0008 0023     		movs	r3, #0
 162 000a FB73     		strb	r3, [r7, #15]
 163 000c 0BE0     		b	.L8
 164              	.L9:
  41:OneWire.c     ****         WriteBit((message >> shiftcount) & 0x01);
 165              		.loc 1 41 0 discriminator 3
 166 000e FB7B     		ldrb	r3, [r7, #15]	@ zero_extendqisi2
 167 0010 7A68     		ldr	r2, [r7, #4]
 168 0012 42FA03F3 		asr	r3, r2, r3
 169 0016 03F00103 		and	r3, r3, #1
 170 001a 1846     		mov	r0, r3
 171 001c FFF7FEFF 		bl	WriteBit
  40:OneWire.c     ****     for (uint8 shiftcount = 0; shiftcount <= 7; shiftcount++) {
 172              		.loc 1 40 0 discriminator 3
 173 0020 FB7B     		ldrb	r3, [r7, #15]	@ zero_extendqisi2
 174 0022 0133     		adds	r3, r3, #1
 175 0024 FB73     		strb	r3, [r7, #15]
 176              	.L8:
  40:OneWire.c     ****     for (uint8 shiftcount = 0; shiftcount <= 7; shiftcount++) {
 177              		.loc 1 40 0 is_stmt 0 discriminator 1
 178 0026 FB7B     		ldrb	r3, [r7, #15]	@ zero_extendqisi2
 179 0028 072B     		cmp	r3, #7
 180 002a F0D9     		bls	.L9
 181              	.LBE2:
  42:OneWire.c     ****     }
ARM GAS  C:\Users\z004e6he\AppData\Local\Temp\cczjiDkw.s 			page 5


  43:OneWire.c     **** }
 182              		.loc 1 43 0 is_stmt 1
 183 002c 00BF     		nop
 184 002e 1037     		adds	r7, r7, #16
 185              		.cfi_def_cfa_offset 8
 186 0030 BD46     		mov	sp, r7
 187              		.cfi_def_cfa_register 13
 188              		@ sp needed
 189 0032 80BD     		pop	{r7, pc}
 190              		.cfi_endproc
 191              	.LFE65:
 192              		.size	WriteByte, .-WriteByte
 193              		.section	.text.ReadBit,"ax",%progbits
 194              		.align	2
 195              		.global	ReadBit
 196              		.thumb
 197              		.thumb_func
 198              		.type	ReadBit, %function
 199              	ReadBit:
 200              	.LFB66:
  44:OneWire.c     **** 
  45:OneWire.c     **** int ReadBit(){ 
 201              		.loc 1 45 0
 202              		.cfi_startproc
 203              		@ args = 0, pretend = 0, frame = 8
 204              		@ frame_needed = 1, uses_anonymous_args = 0
 205 0000 80B5     		push	{r7, lr}
 206              		.cfi_def_cfa_offset 8
 207              		.cfi_offset 7, -8
 208              		.cfi_offset 14, -4
 209 0002 82B0     		sub	sp, sp, #8
 210              		.cfi_def_cfa_offset 16
 211 0004 00AF     		add	r7, sp, #0
 212              		.cfi_def_cfa_register 7
  46:OneWire.c     ****     onewire_pin_Write(LOW);    // signal want to read
 213              		.loc 1 46 0
 214 0006 0020     		movs	r0, #0
 215 0008 FFF7FEFF 		bl	onewire_pin_Write
  47:OneWire.c     ****     CyDelayUs(WAIT_A); 
 216              		.loc 1 47 0
 217 000c 0620     		movs	r0, #6
 218 000e FFF7FEFF 		bl	CyDelayUs
  48:OneWire.c     ****     onewire_pin_Write(HIGH);    // send pin high so can read device response on line 
 219              		.loc 1 48 0
 220 0012 0120     		movs	r0, #1
 221 0014 FFF7FEFF 		bl	onewire_pin_Write
  49:OneWire.c     ****     CyDelayUs(WAIT_E);
 222              		.loc 1 49 0
 223 0018 0920     		movs	r0, #9
 224 001a FFF7FEFF 		bl	CyDelayUs
  50:OneWire.c     ****     int resultValue = onewire_pin_Read();
 225              		.loc 1 50 0
 226 001e FFF7FEFF 		bl	onewire_pin_Read
 227 0022 0346     		mov	r3, r0
 228 0024 7B60     		str	r3, [r7, #4]
  51:OneWire.c     ****     CyDelayUs(WAIT_F);
 229              		.loc 1 51 0
ARM GAS  C:\Users\z004e6he\AppData\Local\Temp\cczjiDkw.s 			page 6


 230 0026 3720     		movs	r0, #55
 231 0028 FFF7FEFF 		bl	CyDelayUs
  52:OneWire.c     ****  	return(resultValue);
 232              		.loc 1 52 0
 233 002c 7B68     		ldr	r3, [r7, #4]
  53:OneWire.c     **** }
 234              		.loc 1 53 0
 235 002e 1846     		mov	r0, r3
 236 0030 0837     		adds	r7, r7, #8
 237              		.cfi_def_cfa_offset 8
 238 0032 BD46     		mov	sp, r7
 239              		.cfi_def_cfa_register 13
 240              		@ sp needed
 241 0034 80BD     		pop	{r7, pc}
 242              		.cfi_endproc
 243              	.LFE66:
 244              		.size	ReadBit, .-ReadBit
 245 0036 00BF     		.section	.text.ReadByte,"ax",%progbits
 246              		.align	2
 247              		.global	ReadByte
 248              		.thumb
 249              		.thumb_func
 250              		.type	ReadByte, %function
 251              	ReadByte:
 252              	.LFB67:
  54:OneWire.c     **** 
  55:OneWire.c     **** int ReadByte(){
 253              		.loc 1 55 0
 254              		.cfi_startproc
 255              		@ args = 0, pretend = 0, frame = 8
 256              		@ frame_needed = 1, uses_anonymous_args = 0
 257 0000 80B5     		push	{r7, lr}
 258              		.cfi_def_cfa_offset 8
 259              		.cfi_offset 7, -8
 260              		.cfi_offset 14, -4
 261 0002 82B0     		sub	sp, sp, #8
 262              		.cfi_def_cfa_offset 16
 263 0004 00AF     		add	r7, sp, #0
 264              		.cfi_def_cfa_register 7
  56:OneWire.c     **** 	uint8 IncomingByte = 0, shiftcount = 0;
 265              		.loc 1 56 0
 266 0006 0023     		movs	r3, #0
 267 0008 FB71     		strb	r3, [r7, #7]
 268 000a 0023     		movs	r3, #0
 269 000c BB71     		strb	r3, [r7, #6]
  57:OneWire.c     **** 	for(shiftcount = 0; shiftcount <= 7; shiftcount++){
 270              		.loc 1 57 0
 271 000e 0023     		movs	r3, #0
 272 0010 BB71     		strb	r3, [r7, #6]
 273 0012 0EE0     		b	.L13
 274              	.L15:
  58:OneWire.c     ****         IncomingByte >>= 1;
 275              		.loc 1 58 0
 276 0014 FB79     		ldrb	r3, [r7, #7]	@ zero_extendqisi2
 277 0016 5B08     		lsrs	r3, r3, #1
 278 0018 FB71     		strb	r3, [r7, #7]
  59:OneWire.c     ****         if(ReadBit()){
ARM GAS  C:\Users\z004e6he\AppData\Local\Temp\cczjiDkw.s 			page 7


 279              		.loc 1 59 0
 280 001a FFF7FEFF 		bl	ReadBit
 281 001e 0346     		mov	r3, r0
 282 0020 002B     		cmp	r3, #0
 283 0022 03D0     		beq	.L14
  60:OneWire.c     ****             IncomingByte |= 0x80;
 284              		.loc 1 60 0
 285 0024 FB79     		ldrb	r3, [r7, #7]
 286 0026 63F07F03 		orn	r3, r3, #127
 287 002a FB71     		strb	r3, [r7, #7]
 288              	.L14:
  57:OneWire.c     ****         IncomingByte >>= 1;
 289              		.loc 1 57 0 discriminator 2
 290 002c BB79     		ldrb	r3, [r7, #6]	@ zero_extendqisi2
 291 002e 0133     		adds	r3, r3, #1
 292 0030 BB71     		strb	r3, [r7, #6]
 293              	.L13:
  57:OneWire.c     ****         IncomingByte >>= 1;
 294              		.loc 1 57 0 is_stmt 0 discriminator 1
 295 0032 BB79     		ldrb	r3, [r7, #6]	@ zero_extendqisi2
 296 0034 072B     		cmp	r3, #7
 297 0036 EDD9     		bls	.L15
  61:OneWire.c     ****         }
  62:OneWire.c     ****     }
  63:OneWire.c     ****     return(IncomingByte);
 298              		.loc 1 63 0 is_stmt 1
 299 0038 FB79     		ldrb	r3, [r7, #7]	@ zero_extendqisi2
  64:OneWire.c     **** }
 300              		.loc 1 64 0
 301 003a 1846     		mov	r0, r3
 302 003c 0837     		adds	r7, r7, #8
 303              		.cfi_def_cfa_offset 8
 304 003e BD46     		mov	sp, r7
 305              		.cfi_def_cfa_register 13
 306              		@ sp needed
 307 0040 80BD     		pop	{r7, pc}
 308              		.cfi_endproc
 309              	.LFE67:
 310              		.size	ReadByte, .-ReadByte
 311 0042 00BF     		.section	.text.TouchByte,"ax",%progbits
 312              		.align	2
 313              		.global	TouchByte
 314              		.thumb
 315              		.thumb_func
 316              		.type	TouchByte, %function
 317              	TouchByte:
 318              	.LFB68:
  65:OneWire.c     **** 
  66:OneWire.c     **** int TouchByte(int message){
 319              		.loc 1 66 0
 320              		.cfi_startproc
 321              		@ args = 0, pretend = 0, frame = 16
 322              		@ frame_needed = 1, uses_anonymous_args = 0
 323 0000 80B5     		push	{r7, lr}
 324              		.cfi_def_cfa_offset 8
 325              		.cfi_offset 7, -8
 326              		.cfi_offset 14, -4
ARM GAS  C:\Users\z004e6he\AppData\Local\Temp\cczjiDkw.s 			page 8


 327 0002 84B0     		sub	sp, sp, #16
 328              		.cfi_def_cfa_offset 24
 329 0004 00AF     		add	r7, sp, #0
 330              		.cfi_def_cfa_register 7
 331 0006 7860     		str	r0, [r7, #4]
  67:OneWire.c     ****     uint8 shiftcount, result = 0;
 332              		.loc 1 67 0
 333 0008 0023     		movs	r3, #0
 334 000a BB73     		strb	r3, [r7, #14]
  68:OneWire.c     ****     for(shiftcount = 0; shiftcount <= 7; shiftcount++){
 335              		.loc 1 68 0
 336 000c 0023     		movs	r3, #0
 337 000e FB73     		strb	r3, [r7, #15]
 338 0010 1AE0     		b	.L18
 339              	.L21:
  69:OneWire.c     ****         result >>= 1;
 340              		.loc 1 69 0
 341 0012 BB7B     		ldrb	r3, [r7, #14]	@ zero_extendqisi2
 342 0014 5B08     		lsrs	r3, r3, #1
 343 0016 BB73     		strb	r3, [r7, #14]
  70:OneWire.c     ****         if(message & 0x01){
 344              		.loc 1 70 0
 345 0018 7B68     		ldr	r3, [r7, #4]
 346 001a 03F00103 		and	r3, r3, #1
 347 001e 002B     		cmp	r3, #0
 348 0020 0CD0     		beq	.L19
  71:OneWire.c     ****             if(ReadBit()){
 349              		.loc 1 71 0
 350 0022 FFF7FEFF 		bl	ReadBit
 351 0026 0346     		mov	r3, r0
 352 0028 002B     		cmp	r3, #0
 353 002a 04D0     		beq	.L20
  72:OneWire.c     ****                 result |= 0x80;
 354              		.loc 1 72 0
 355 002c BB7B     		ldrb	r3, [r7, #14]
 356 002e 63F07F03 		orn	r3, r3, #127
 357 0032 BB73     		strb	r3, [r7, #14]
 358 0034 02E0     		b	.L19
 359              	.L20:
  73:OneWire.c     ****             }else{
  74:OneWire.c     ****                 WriteBit(0);
 360              		.loc 1 74 0
 361 0036 0020     		movs	r0, #0
 362 0038 FFF7FEFF 		bl	WriteBit
 363              	.L19:
  75:OneWire.c     ****             }
  76:OneWire.c     ****         }
  77:OneWire.c     ****         message >>= 1;
 364              		.loc 1 77 0 discriminator 2
 365 003c 7B68     		ldr	r3, [r7, #4]
 366 003e 5B10     		asrs	r3, r3, #1
 367 0040 7B60     		str	r3, [r7, #4]
  68:OneWire.c     ****         result >>= 1;
 368              		.loc 1 68 0 discriminator 2
 369 0042 FB7B     		ldrb	r3, [r7, #15]	@ zero_extendqisi2
 370 0044 0133     		adds	r3, r3, #1
 371 0046 FB73     		strb	r3, [r7, #15]
ARM GAS  C:\Users\z004e6he\AppData\Local\Temp\cczjiDkw.s 			page 9


 372              	.L18:
  68:OneWire.c     ****         result >>= 1;
 373              		.loc 1 68 0 is_stmt 0 discriminator 1
 374 0048 FB7B     		ldrb	r3, [r7, #15]	@ zero_extendqisi2
 375 004a 072B     		cmp	r3, #7
 376 004c E1D9     		bls	.L21
  78:OneWire.c     ****     }
  79:OneWire.c     ****     return(result);
 377              		.loc 1 79 0 is_stmt 1
 378 004e BB7B     		ldrb	r3, [r7, #14]	@ zero_extendqisi2
  80:OneWire.c     **** }
 379              		.loc 1 80 0
 380 0050 1846     		mov	r0, r3
 381 0052 1037     		adds	r7, r7, #16
 382              		.cfi_def_cfa_offset 8
 383 0054 BD46     		mov	sp, r7
 384              		.cfi_def_cfa_register 13
 385              		@ sp needed
 386 0056 80BD     		pop	{r7, pc}
 387              		.cfi_endproc
 388              	.LFE68:
 389              		.size	TouchByte, .-TouchByte
 390              		.text
 391              	.Letext0:
 392              		.file 2 "c:\\program files (x86)\\cypress\\psoc creator\\4.4\\psoc creator\\import\\gnu\\arm\\5.4.
 393              		.file 3 "c:\\program files (x86)\\cypress\\psoc creator\\4.4\\psoc creator\\import\\gnu\\arm\\5.4.
 394              		.file 4 "Generated_Source\\PSoC5/cytypes.h"
 395              		.file 5 "Generated_Source\\PSoC5/core_cm3.h"