ARM GAS  C:\Users\z004e6he\AppData\Local\Temp\ccOxclzf.s 			page 1


   1              		.syntax unified
   2              		.cpu cortex-m3
   3              		.fpu softvfp
   4              		.eabi_attribute 20, 1
   5              		.eabi_attribute 21, 1
   6              		.eabi_attribute 23, 3
   7              		.eabi_attribute 24, 1
   8              		.eabi_attribute 25, 1
   9              		.eabi_attribute 26, 1
  10              		.eabi_attribute 30, 1
  11              		.eabi_attribute 34, 1
  12              		.eabi_attribute 18, 4
  13              		.thumb
  14              		.syntax unified
  15              		.file	"ADC_INT.c"
  16              		.text
  17              	.Ltext0:
  18              		.cfi_sections	.debug_frame
  19              		.section	.text.ADC_ISR1,"ax",%progbits
  20              		.align	2
  21              		.global	ADC_ISR1
  22              		.thumb
  23              		.thumb_func
  24              		.type	ADC_ISR1, %function
  25              	ADC_ISR1:
  26              	.LFB0:
  27              		.file 1 "Generated_Source\\PSoC5\\ADC_INT.c"
   1:Generated_Source\PSoC5/ADC_INT.c **** /*******************************************************************************
   2:Generated_Source\PSoC5/ADC_INT.c **** * File Name: ADC_INT.c
   3:Generated_Source\PSoC5/ADC_INT.c **** * Version 3.30
   4:Generated_Source\PSoC5/ADC_INT.c **** *
   5:Generated_Source\PSoC5/ADC_INT.c **** * Description:
   6:Generated_Source\PSoC5/ADC_INT.c **** *  This file contains the code that operates during the ADC_DelSig interrupt
   7:Generated_Source\PSoC5/ADC_INT.c **** *  service routine.
   8:Generated_Source\PSoC5/ADC_INT.c **** *
   9:Generated_Source\PSoC5/ADC_INT.c **** * Note:
  10:Generated_Source\PSoC5/ADC_INT.c **** *
  11:Generated_Source\PSoC5/ADC_INT.c **** ********************************************************************************
  12:Generated_Source\PSoC5/ADC_INT.c **** * Copyright 2008-2017, Cypress Semiconductor Corporation.  All rights reserved.
  13:Generated_Source\PSoC5/ADC_INT.c **** * You may use this file only in accordance with the license, terms, conditions,
  14:Generated_Source\PSoC5/ADC_INT.c **** * disclaimers, and limitations in the end user license agreement accompanying
  15:Generated_Source\PSoC5/ADC_INT.c **** * the software package with which this file was provided.
  16:Generated_Source\PSoC5/ADC_INT.c **** *******************************************************************************/
  17:Generated_Source\PSoC5/ADC_INT.c **** 
  18:Generated_Source\PSoC5/ADC_INT.c **** #include "ADC.h"
  19:Generated_Source\PSoC5/ADC_INT.c **** #include "cyapicallbacks.h"
  20:Generated_Source\PSoC5/ADC_INT.c **** 
  21:Generated_Source\PSoC5/ADC_INT.c **** 
  22:Generated_Source\PSoC5/ADC_INT.c **** /*******************************************************************************
  23:Generated_Source\PSoC5/ADC_INT.c **** * Custom Declarations and Variables
  24:Generated_Source\PSoC5/ADC_INT.c **** * - add user include files, prototypes and variables between the following
  25:Generated_Source\PSoC5/ADC_INT.c **** *   #START and #END tags
  26:Generated_Source\PSoC5/ADC_INT.c **** *******************************************************************************/
  27:Generated_Source\PSoC5/ADC_INT.c **** /* `#START ADC_SYS_VAR`  */
  28:Generated_Source\PSoC5/ADC_INT.c **** uint8 gADC_ISR = 0;
  29:Generated_Source\PSoC5/ADC_INT.c **** 
  30:Generated_Source\PSoC5/ADC_INT.c **** /* `#END`  */
ARM GAS  C:\Users\z004e6he\AppData\Local\Temp\ccOxclzf.s 			page 2


  31:Generated_Source\PSoC5/ADC_INT.c **** 
  32:Generated_Source\PSoC5/ADC_INT.c **** #if(ADC_IRQ_REMOVE == 0u)
  33:Generated_Source\PSoC5/ADC_INT.c **** 
  34:Generated_Source\PSoC5/ADC_INT.c **** 
  35:Generated_Source\PSoC5/ADC_INT.c ****     /*****************************************************************************
  36:Generated_Source\PSoC5/ADC_INT.c ****     * Function Name: ADC_ISR1
  37:Generated_Source\PSoC5/ADC_INT.c ****     ******************************************************************************
  38:Generated_Source\PSoC5/ADC_INT.c ****     *
  39:Generated_Source\PSoC5/ADC_INT.c ****     * Summary:
  40:Generated_Source\PSoC5/ADC_INT.c ****     *  Handle Interrupt Service Routine.
  41:Generated_Source\PSoC5/ADC_INT.c ****     *
  42:Generated_Source\PSoC5/ADC_INT.c ****     * Parameters:
  43:Generated_Source\PSoC5/ADC_INT.c ****     *  None
  44:Generated_Source\PSoC5/ADC_INT.c ****     *
  45:Generated_Source\PSoC5/ADC_INT.c ****     * Return:
  46:Generated_Source\PSoC5/ADC_INT.c ****     *  None
  47:Generated_Source\PSoC5/ADC_INT.c ****     *
  48:Generated_Source\PSoC5/ADC_INT.c ****     * Reentrant:
  49:Generated_Source\PSoC5/ADC_INT.c ****     *  No
  50:Generated_Source\PSoC5/ADC_INT.c ****     *
  51:Generated_Source\PSoC5/ADC_INT.c ****     *****************************************************************************/
  52:Generated_Source\PSoC5/ADC_INT.c ****     CY_ISR( ADC_ISR1)
  53:Generated_Source\PSoC5/ADC_INT.c ****     {
  28              		.loc 1 53 0
  29              		.cfi_startproc
  30              		@ args = 0, pretend = 0, frame = 0
  31              		@ frame_needed = 0, uses_anonymous_args = 0
  32              		@ link register save eliminated.
  54:Generated_Source\PSoC5/ADC_INT.c ****         #ifdef ADC_ISR1_ENTRY_CALLBACK
  55:Generated_Source\PSoC5/ADC_INT.c ****             ADC_ISR1_EntryCallback();
  56:Generated_Source\PSoC5/ADC_INT.c ****         #endif /* ADC_ISR1_ENTRY_CALLBACK */
  57:Generated_Source\PSoC5/ADC_INT.c ****         
  58:Generated_Source\PSoC5/ADC_INT.c **** 
  59:Generated_Source\PSoC5/ADC_INT.c ****         /**************************************************************************
  60:Generated_Source\PSoC5/ADC_INT.c ****         *  Custom Code
  61:Generated_Source\PSoC5/ADC_INT.c ****         *  - add user ISR code between the following #START and #END tags
  62:Generated_Source\PSoC5/ADC_INT.c ****         **************************************************************************/
  63:Generated_Source\PSoC5/ADC_INT.c ****         /* `#START MAIN_ADC_ISR1`  */
  64:Generated_Source\PSoC5/ADC_INT.c ****         gADC_ISR = 1;
  33              		.loc 1 64 0
  34 0000 0122     		movs	r2, #1
  35 0002 014B     		ldr	r3, .L2
  36 0004 1A70     		strb	r2, [r3]
  37 0006 7047     		bx	lr
  38              	.L3:
  39              		.align	2
  40              	.L2:
  41 0008 00000000 		.word	.LANCHOR0
  42              		.cfi_endproc
  43              	.LFE0:
  44              		.size	ADC_ISR1, .-ADC_ISR1
  45              		.section	.text.ADC_ISR2,"ax",%progbits
  46              		.align	2
  47              		.global	ADC_ISR2
  48              		.thumb
  49              		.thumb_func
  50              		.type	ADC_ISR2, %function
ARM GAS  C:\Users\z004e6he\AppData\Local\Temp\ccOxclzf.s 			page 3


  51              	ADC_ISR2:
  52              	.LFB1:
  65:Generated_Source\PSoC5/ADC_INT.c ****         /* `#END`  */
  66:Generated_Source\PSoC5/ADC_INT.c ****         
  67:Generated_Source\PSoC5/ADC_INT.c ****         /* Stop the conversion if conversion mode is single sample and resolution
  68:Generated_Source\PSoC5/ADC_INT.c ****         *  is above 16 bits.
  69:Generated_Source\PSoC5/ADC_INT.c ****         */
  70:Generated_Source\PSoC5/ADC_INT.c ****         #if(ADC_CFG1_RESOLUTION > 16 && \
  71:Generated_Source\PSoC5/ADC_INT.c ****             ADC_CFG1_CONV_MODE == ADC_MODE_SINGLE_SAMPLE)
  72:Generated_Source\PSoC5/ADC_INT.c ****             ADC_StopConvert();
  73:Generated_Source\PSoC5/ADC_INT.c ****             /* Software flag for checking conversion complete or not. Will be used when
  74:Generated_Source\PSoC5/ADC_INT.c ****             *  resolution is above 16 bits and conversion mode is single sample 
  75:Generated_Source\PSoC5/ADC_INT.c **** 			*/
  76:Generated_Source\PSoC5/ADC_INT.c ****             ADC_convDone = ADC_DEC_CONV_DONE;
  77:Generated_Source\PSoC5/ADC_INT.c ****         #endif /* Single sample conversion mode with resolution above 16 bits */
  78:Generated_Source\PSoC5/ADC_INT.c **** 
  79:Generated_Source\PSoC5/ADC_INT.c ****         #ifdef ADC_ISR1_EXIT_CALLBACK
  80:Generated_Source\PSoC5/ADC_INT.c ****             ADC_ISR1_ExitCallback();
  81:Generated_Source\PSoC5/ADC_INT.c ****         #endif /* ADC_ISR1_EXIT_CALLBACK */
  82:Generated_Source\PSoC5/ADC_INT.c ****     }
  83:Generated_Source\PSoC5/ADC_INT.c **** 
  84:Generated_Source\PSoC5/ADC_INT.c **** 
  85:Generated_Source\PSoC5/ADC_INT.c ****     /*****************************************************************************
  86:Generated_Source\PSoC5/ADC_INT.c ****     * Function Name: ADC_ISR2
  87:Generated_Source\PSoC5/ADC_INT.c ****     ******************************************************************************
  88:Generated_Source\PSoC5/ADC_INT.c ****     *
  89:Generated_Source\PSoC5/ADC_INT.c ****     * Summary:
  90:Generated_Source\PSoC5/ADC_INT.c ****     *  Handle Interrupt Service Routine.
  91:Generated_Source\PSoC5/ADC_INT.c ****     *
  92:Generated_Source\PSoC5/ADC_INT.c ****     * Parameters:
  93:Generated_Source\PSoC5/ADC_INT.c ****     *  None
  94:Generated_Source\PSoC5/ADC_INT.c ****     *
  95:Generated_Source\PSoC5/ADC_INT.c ****     * Return:
  96:Generated_Source\PSoC5/ADC_INT.c ****     *  None
  97:Generated_Source\PSoC5/ADC_INT.c ****     *
  98:Generated_Source\PSoC5/ADC_INT.c ****     * Reentrant:
  99:Generated_Source\PSoC5/ADC_INT.c ****     *  No
 100:Generated_Source\PSoC5/ADC_INT.c ****     *
 101:Generated_Source\PSoC5/ADC_INT.c ****     *****************************************************************************/
 102:Generated_Source\PSoC5/ADC_INT.c ****     CY_ISR( ADC_ISR2)
 103:Generated_Source\PSoC5/ADC_INT.c ****     {
  53              		.loc 1 103 0
  54              		.cfi_startproc
  55              		@ args = 0, pretend = 0, frame = 0
  56              		@ frame_needed = 0, uses_anonymous_args = 0
  57              		@ link register save eliminated.
  58 0000 7047     		bx	lr
  59              		.cfi_endproc
  60              	.LFE1:
  61              		.size	ADC_ISR2, .-ADC_ISR2
  62 0002 00BF     		.section	.text.ADC_ISR3,"ax",%progbits
  63              		.align	2
  64              		.global	ADC_ISR3
  65              		.thumb
  66              		.thumb_func
  67              		.type	ADC_ISR3, %function
  68              	ADC_ISR3:
ARM GAS  C:\Users\z004e6he\AppData\Local\Temp\ccOxclzf.s 			page 4


  69              	.LFB2:
 104:Generated_Source\PSoC5/ADC_INT.c ****         #ifdef ADC_ISR2_ENTRY_CALLBACK
 105:Generated_Source\PSoC5/ADC_INT.c ****             ADC_ISR2_EntryCallback();
 106:Generated_Source\PSoC5/ADC_INT.c ****         #endif /* ADC_ISR2_ENTRY_CALLBACK */
 107:Generated_Source\PSoC5/ADC_INT.c ****         
 108:Generated_Source\PSoC5/ADC_INT.c ****         
 109:Generated_Source\PSoC5/ADC_INT.c ****         /***************************************************************************
 110:Generated_Source\PSoC5/ADC_INT.c ****         *  Custom Code
 111:Generated_Source\PSoC5/ADC_INT.c ****         *  - add user ISR code between the following #START and #END tags
 112:Generated_Source\PSoC5/ADC_INT.c ****         **************************************************************************/
 113:Generated_Source\PSoC5/ADC_INT.c ****         /* `#START MAIN_ADC_ISR2`  */
 114:Generated_Source\PSoC5/ADC_INT.c **** 
 115:Generated_Source\PSoC5/ADC_INT.c ****         /* `#END`  */
 116:Generated_Source\PSoC5/ADC_INT.c **** 
 117:Generated_Source\PSoC5/ADC_INT.c ****         /* Stop the conversion conversion mode is single sample and resolution
 118:Generated_Source\PSoC5/ADC_INT.c ****         *  is above 16 bits.
 119:Generated_Source\PSoC5/ADC_INT.c ****         */
 120:Generated_Source\PSoC5/ADC_INT.c ****         #if(ADC_CFG2_RESOLUTION > 16 && \
 121:Generated_Source\PSoC5/ADC_INT.c ****             ADC_CFG2_CONVMODE == ADC_MODE_SINGLE_SAMPLE)
 122:Generated_Source\PSoC5/ADC_INT.c ****             ADC_StopConvert();
 123:Generated_Source\PSoC5/ADC_INT.c ****             /* Software flag for checking conversion complete or not. Will be used when
 124:Generated_Source\PSoC5/ADC_INT.c ****             *   resolution is above 16 bits and conversion mode is single sample 
 125:Generated_Source\PSoC5/ADC_INT.c **** 			*/
 126:Generated_Source\PSoC5/ADC_INT.c ****             ADC_convDone = ADC_DEC_CONV_DONE;
 127:Generated_Source\PSoC5/ADC_INT.c ****         #endif /* Single sample conversion mode with resolution above 16 bits */
 128:Generated_Source\PSoC5/ADC_INT.c **** 
 129:Generated_Source\PSoC5/ADC_INT.c ****         #ifdef ADC_ISR2_EXIT_CALLBACK
 130:Generated_Source\PSoC5/ADC_INT.c ****             ADC_ISR2_ExitCallback();
 131:Generated_Source\PSoC5/ADC_INT.c ****         #endif /* ADC_ISR2_EXIT_CALLBACK */
 132:Generated_Source\PSoC5/ADC_INT.c ****     }
 133:Generated_Source\PSoC5/ADC_INT.c **** 
 134:Generated_Source\PSoC5/ADC_INT.c **** 
 135:Generated_Source\PSoC5/ADC_INT.c ****     /*****************************************************************************
 136:Generated_Source\PSoC5/ADC_INT.c ****     * Function Name: ADC_ISR3
 137:Generated_Source\PSoC5/ADC_INT.c ****     ******************************************************************************
 138:Generated_Source\PSoC5/ADC_INT.c ****     *
 139:Generated_Source\PSoC5/ADC_INT.c ****     * Summary:
 140:Generated_Source\PSoC5/ADC_INT.c ****     *  Handle Interrupt Service Routine.
 141:Generated_Source\PSoC5/ADC_INT.c ****     *
 142:Generated_Source\PSoC5/ADC_INT.c ****     * Parameters:
 143:Generated_Source\PSoC5/ADC_INT.c ****     *  None
 144:Generated_Source\PSoC5/ADC_INT.c ****     *
 145:Generated_Source\PSoC5/ADC_INT.c ****     * Return:
 146:Generated_Source\PSoC5/ADC_INT.c ****     *  None
 147:Generated_Source\PSoC5/ADC_INT.c ****     *
 148:Generated_Source\PSoC5/ADC_INT.c ****     * Reentrant:
 149:Generated_Source\PSoC5/ADC_INT.c ****     *  No
 150:Generated_Source\PSoC5/ADC_INT.c ****     *
 151:Generated_Source\PSoC5/ADC_INT.c ****     *****************************************************************************/
 152:Generated_Source\PSoC5/ADC_INT.c ****     CY_ISR( ADC_ISR3)
 153:Generated_Source\PSoC5/ADC_INT.c ****     {
  70              		.loc 1 153 0
  71              		.cfi_startproc
  72              		@ args = 0, pretend = 0, frame = 0
  73              		@ frame_needed = 0, uses_anonymous_args = 0
  74              		@ link register save eliminated.
  75 0000 7047     		bx	lr
ARM GAS  C:\Users\z004e6he\AppData\Local\Temp\ccOxclzf.s 			page 5


  76              		.cfi_endproc
  77              	.LFE2:
  78              		.size	ADC_ISR3, .-ADC_ISR3
  79 0002 00BF     		.section	.text.ADC_ISR4,"ax",%progbits
  80              		.align	2
  81              		.global	ADC_ISR4
  82              		.thumb
  83              		.thumb_func
  84              		.type	ADC_ISR4, %function
  85              	ADC_ISR4:
  86              	.LFB3:
 154:Generated_Source\PSoC5/ADC_INT.c ****         #ifdef ADC_ISR3_ENTRY_CALLBACK
 155:Generated_Source\PSoC5/ADC_INT.c ****             ADC_ISR3_EntryCallback();
 156:Generated_Source\PSoC5/ADC_INT.c ****         #endif /* ADC_ISR3_ENTRY_CALLBACK */        
 157:Generated_Source\PSoC5/ADC_INT.c **** 
 158:Generated_Source\PSoC5/ADC_INT.c ****         
 159:Generated_Source\PSoC5/ADC_INT.c ****         /***************************************************************************
 160:Generated_Source\PSoC5/ADC_INT.c ****         *  Custom Code
 161:Generated_Source\PSoC5/ADC_INT.c ****         *  - add user ISR code between the following #START and #END tags
 162:Generated_Source\PSoC5/ADC_INT.c ****         **************************************************************************/
 163:Generated_Source\PSoC5/ADC_INT.c ****         /* `#START MAIN_ADC_ISR3`  */
 164:Generated_Source\PSoC5/ADC_INT.c **** 
 165:Generated_Source\PSoC5/ADC_INT.c ****         /* `#END`  */
 166:Generated_Source\PSoC5/ADC_INT.c ****         
 167:Generated_Source\PSoC5/ADC_INT.c ****         /* Stop the conversion if conversion mode is set to single sample and
 168:Generated_Source\PSoC5/ADC_INT.c ****         *  resolution is above 16 bits.
 169:Generated_Source\PSoC5/ADC_INT.c ****         */
 170:Generated_Source\PSoC5/ADC_INT.c ****         #if(ADC_CFG3_RESOLUTION > 16 && \
 171:Generated_Source\PSoC5/ADC_INT.c ****             ADC_CFG3_CONVMODE == ADC_MODE_SINGLE_SAMPLE)
 172:Generated_Source\PSoC5/ADC_INT.c ****             ADC_StopConvert();
 173:Generated_Source\PSoC5/ADC_INT.c ****             /* Software flag for checking conversion complete or not. Will be used when
 174:Generated_Source\PSoC5/ADC_INT.c ****             *  resolution is above 16 bits and conversion mode is single sample 
 175:Generated_Source\PSoC5/ADC_INT.c **** 			*/
 176:Generated_Source\PSoC5/ADC_INT.c ****             ADC_convDone = ADC_DEC_CONV_DONE;
 177:Generated_Source\PSoC5/ADC_INT.c ****         #endif /* Single sample conversion mode with resolution above 16 bits */
 178:Generated_Source\PSoC5/ADC_INT.c **** 
 179:Generated_Source\PSoC5/ADC_INT.c ****         #ifdef ADC_ISR3_EXIT_CALLBACK
 180:Generated_Source\PSoC5/ADC_INT.c ****             ADC_ISR3_ExitCallback();
 181:Generated_Source\PSoC5/ADC_INT.c ****         #endif /* ADC_ISR3_EXIT_CALLBACK */        
 182:Generated_Source\PSoC5/ADC_INT.c ****     }
 183:Generated_Source\PSoC5/ADC_INT.c **** 
 184:Generated_Source\PSoC5/ADC_INT.c **** 
 185:Generated_Source\PSoC5/ADC_INT.c ****     /*****************************************************************************
 186:Generated_Source\PSoC5/ADC_INT.c ****     * Function Name: ADC_ISR4
 187:Generated_Source\PSoC5/ADC_INT.c ****     ******************************************************************************
 188:Generated_Source\PSoC5/ADC_INT.c ****     *
 189:Generated_Source\PSoC5/ADC_INT.c ****     * Summary:
 190:Generated_Source\PSoC5/ADC_INT.c ****     *  Handle Interrupt Service Routine.
 191:Generated_Source\PSoC5/ADC_INT.c ****     *
 192:Generated_Source\PSoC5/ADC_INT.c ****     * Parameters:
 193:Generated_Source\PSoC5/ADC_INT.c ****     *  None
 194:Generated_Source\PSoC5/ADC_INT.c ****     *
 195:Generated_Source\PSoC5/ADC_INT.c ****     * Return:
 196:Generated_Source\PSoC5/ADC_INT.c ****     *  None
 197:Generated_Source\PSoC5/ADC_INT.c ****     *
 198:Generated_Source\PSoC5/ADC_INT.c ****     * Reentrant:
 199:Generated_Source\PSoC5/ADC_INT.c ****     *  No
ARM GAS  C:\Users\z004e6he\AppData\Local\Temp\ccOxclzf.s 			page 6


 200:Generated_Source\PSoC5/ADC_INT.c ****     *
 201:Generated_Source\PSoC5/ADC_INT.c ****     *****************************************************************************/
 202:Generated_Source\PSoC5/ADC_INT.c ****     CY_ISR( ADC_ISR4)
 203:Generated_Source\PSoC5/ADC_INT.c ****     {
  87              		.loc 1 203 0
  88              		.cfi_startproc
  89              		@ args = 0, pretend = 0, frame = 0
  90              		@ frame_needed = 0, uses_anonymous_args = 0
  91              		@ link register save eliminated.
  92 0000 7047     		bx	lr
  93              		.cfi_endproc
  94              	.LFE3:
  95              		.size	ADC_ISR4, .-ADC_ISR4
  96              		.global	gADC_ISR
  97 0002 00BF     		.bss
  98              		.set	.LANCHOR0,. + 0
  99              		.type	gADC_ISR, %object
 100              		.size	gADC_ISR, 1
 101              	gADC_ISR:
 102 0000 00       		.space	1
 103              		.text
 104              	.Letext0:
 105              		.file 2 "Generated_Source\\PSoC5\\cytypes.h"