ARM GAS  C:\Users\z004e6he\AppData\Local\Temp\cc9aJYfw.s 			page 1


   1              		.syntax unified
   2              		.cpu cortex-m3
   3              		.fpu softvfp
   4              		.eabi_attribute 20, 1
   5              		.eabi_attribute 21, 1
   6              		.eabi_attribute 23, 3
   7              		.eabi_attribute 24, 1
   8              		.eabi_attribute 25, 1
   9              		.eabi_attribute 26, 1
  10              		.eabi_attribute 30, 1
  11              		.eabi_attribute 34, 1
  12              		.eabi_attribute 18, 4
  13              		.thumb
  14              		.syntax unified
  15              		.file	"HallEffect.c"
  16              		.text
  17              	.Ltext0:
  18              		.cfi_sections	.debug_frame
  19              		.section	.text.scanMatrix,"ax",%progbits
  20              		.align	2
  21              		.global	scanMatrix
  22              		.thumb
  23              		.thumb_func
  24              		.type	scanMatrix, %function
  25              	scanMatrix:
  26              	.LFB65:
  27              		.file 1 "HallEffect.c"
   1:HallEffect.c  **** /*
   2:HallEffect.c  ****  * ======================================================================================
   3:HallEffect.c  ****  *
   4:HallEffect.c  ****  * Names: Luca Spengler (1399655), Fabian Fritz (1394906)
   5:HallEffect.c  ****  * Emails: luca.spengler2@stud.fra-uas.de, fabian.fritz@stud.fra-uas.de
   6:HallEffect.c  ****  * Date: 30.05.2024
   7:HallEffect.c  ****  * Course ID: TX00DB04
   8:HallEffect.c  ****  * Description: This project reads the analog outputs of a hall effect sensor matrix
   9:HallEffect.c  ****  *              to switch between several output modes, then reads the inputs of
  10:HallEffect.c  ****  *              hall effect, temperature and ultrasound sensors and displays them
  11:HallEffect.c  ****  *              in different ways based on the output mode. The various output modes
  12:HallEffect.c  ****  *              are described in the pages.h file.
  13:HallEffect.c  ****  *
  14:HallEffect.c  ****  *              The keyboard is arranged in a 4 by 4 matrix, with a multiplexer to
  15:HallEffect.c  ****  *              connect the rows to the internal ADC. It features per-key calibration
  16:HallEffect.c  ****  *              as well as individually configurable trigger heights and rapid trigger
  17:HallEffect.c  ****  *              distances on a per-key basis. Calibration can be started by holding the
  18:HallEffect.c  ****  *              key defined in config.h on boot. 
  19:HallEffect.c  ****  *
  20:HallEffect.c  ****  *              The ssd1306 files come from a separate source and can be found here:
  21:HallEffect.c  ****  *              https://github.com/NRDaza/Oled-Psoc5/tree/master
  22:HallEffect.c  ****  * 
  23:HallEffect.c  ****  * ======================================================================================
  24:HallEffect.c  ****  */
  25:HallEffect.c  **** 
  26:HallEffect.c  **** #include "HallEffect.h"
  27:HallEffect.c  **** 
  28:HallEffect.c  **** /* Array of functions to make accessing the pins in a for loop easier */
  29:HallEffect.c  **** void (*pinWriteArr[COLUMNS])(uint8) = {Col0_Write, Col1_Write, Col2_Write, Col3_Write};
  30:HallEffect.c  **** 
ARM GAS  C:\Users\z004e6he\AppData\Local\Temp\cc9aJYfw.s 			page 2


  31:HallEffect.c  **** /* Initialize the keyboard */
  32:HallEffect.c  **** void keyboardInit(void){
  33:HallEffect.c  ****     //Put the configured trigger heights into an array for indexing
  34:HallEffect.c  ****     const float triggerHeight[ROWS][COLUMNS] = TRIGGER_HEIGHT;
  35:HallEffect.c  ****     
  36:HallEffect.c  ****     #ifdef RAPID_TRIGGER
  37:HallEffect.c  ****     //Put the configured rapid trigger distances into an array for indexing
  38:HallEffect.c  ****     const float rapidDistance[ROWS][COLUMNS] = RAPID_TRIGGER;
  39:HallEffect.c  ****     #endif
  40:HallEffect.c  ****     
  41:HallEffect.c  ****     #ifdef CALIBRATE_SWITCHES
  42:HallEffect.c  ****     //Track if a calibration has been done this boot
  43:HallEffect.c  ****     uint8 calibrationDoneThisInit = FALSE;
  44:HallEffect.c  ****     const uint8 calibrationKey[2] = {(CALIBRATION_KEY[ROW_INDEX] - ASCII_OFFSET), 
  45:HallEffect.c  ****                                      (CALIBRATION_KEY[COLUMN_INDEX] - ASCII_OFFSET)};
  46:HallEffect.c  ****     #endif
  47:HallEffect.c  ****     
  48:HallEffect.c  ****     uint8 row, col;
  49:HallEffect.c  ****     //One row holds 16 bytes in the EEPROM
  50:HallEffect.c  ****     uint8 rowData[EEPROM_ROW_SIZE];
  51:HallEffect.c  **** 
  52:HallEffect.c  ****     //Check for warnings and errors, function doesn't return in case of errors
  53:HallEffect.c  ****     checkErrors(triggerHeight
  54:HallEffect.c  ****     #ifdef RAPID_TRIGGER
  55:HallEffect.c  ****                ,rapidDistance 
  56:HallEffect.c  ****     #endif
  57:HallEffect.c  ****     #ifdef CALIBRATE_SWITCHES
  58:HallEffect.c  ****                ,calibrationKey
  59:HallEffect.c  ****     #endif
  60:HallEffect.c  ****     );
  61:HallEffect.c  ****     
  62:HallEffect.c  ****     #ifdef CALIBRATE_SWITCHES
  63:HallEffect.c  ****     //Call calibration function every time if EEPROM is empty
  64:HallEffect.c  ****     if(!EEPROM_ReadByte(0)){
  65:HallEffect.c  ****         calibrateSwitches();
  66:HallEffect.c  ****         calibrationDoneThisInit = TRUE;
  67:HallEffect.c  ****     }else{
  68:HallEffect.c  ****         //Call calibration function if calibration button is pressed
  69:HallEffect.c  ****         sprintf(Transmitbuffer, "Press key [%i/%i] to start calibration\r\n", 
  70:HallEffect.c  ****                 calibrationKey[ROW_INDEX], calibrationKey[COLUMN_INDEX]);
  71:HallEffect.c  ****         //Output to UART
  72:HallEffect.c  ****         UART_PutString(Transmitbuffer);
  73:HallEffect.c  ****         //Output to the display
  74:HallEffect.c  ****         display_clear();
  75:HallEffect.c  ****         display_update();
  76:HallEffect.c  ****         //Set cursor to readable position - for the first ~40 lines only every second one works
  77:HallEffect.c  ****         //If a working display is used, the offset can be set to 0 in config.h
  78:HallEffect.c  ****         gfx_setCursor(0, DISPLAY_OFFSET);
  79:HallEffect.c  ****         gfx_setTextSize(1);
  80:HallEffect.c  ****         gfx_println(Transmitbuffer);
  81:HallEffect.c  ****         display_update();
  82:HallEffect.c  ****         
  83:HallEffect.c  ****         //Read the designated calibration key, as defined in config.h
  84:HallEffect.c  ****         AMux_Select(calibrationKey[ROW_INDEX]);
  85:HallEffect.c  ****         (*pinWriteArr[calibrationKey[COLUMN_INDEX]])(HIGH);
  86:HallEffect.c  ****         uint16 count = 0;
  87:HallEffect.c  ****         //CALIBRATION_START_COUNT is defined as half the ADC sample rate, this loop always lasts ~5
ARM GAS  C:\Users\z004e6he\AppData\Local\Temp\cc9aJYfw.s 			page 3


  88:HallEffect.c  ****         while(count < CALIBRATION_START_COUNT){
  89:HallEffect.c  ****             if(ADC_Read16() < DEFAULT_TRIGGER_VALUE){
  90:HallEffect.c  ****                 uint8 completed = FALSE;
  91:HallEffect.c  ****                 calibrationDoneThisInit = TRUE;
  92:HallEffect.c  ****                 //Only start calibrating after the calibration key has been released
  93:HallEffect.c  ****                 //Display message to release calibration key
  94:HallEffect.c  ****                 UART_PutString("Release the key to start calibrating\r\n");
  95:HallEffect.c  ****                 //Output to the display
  96:HallEffect.c  ****                 display_clear();
  97:HallEffect.c  ****                 display_update();
  98:HallEffect.c  ****                 //Set cursor to readable position - for the first ~40 lines only every second one w
  99:HallEffect.c  ****                 //If a working display is used, the offset can be set to 0 in config.h
 100:HallEffect.c  ****                 gfx_setCursor(0, DISPLAY_OFFSET);
 101:HallEffect.c  ****                 gfx_setTextSize(1);
 102:HallEffect.c  ****                 gfx_println("Release the key to start calibration\r\n");
 103:HallEffect.c  ****                 display_update();
 104:HallEffect.c  ****                 while(!completed){
 105:HallEffect.c  ****                     //Wait until key is released again
 106:HallEffect.c  ****                     if(ADC_Read16() > DEFAULT_TRIGGER_VALUE){
 107:HallEffect.c  ****                         completed = TRUE;
 108:HallEffect.c  ****                         //Delay to make sure the key is released completely before function is call
 109:HallEffect.c  ****                         CyDelay(KEYUP_DELAY);
 110:HallEffect.c  ****                     }
 111:HallEffect.c  ****                 }
 112:HallEffect.c  ****                 //Deactivate row and column
 113:HallEffect.c  ****                 AMux_Disconnect(calibrationKey[ROW_INDEX]);
 114:HallEffect.c  ****                 (*pinWriteArr[calibrationKey[COLUMN_INDEX]])(LOW);
 115:HallEffect.c  ****                 //Call the calibration function
 116:HallEffect.c  ****                 calibrateSwitches();
 117:HallEffect.c  ****                 //Exit the loop to avoid retriggering calibration on this boot
 118:HallEffect.c  ****                 break;
 119:HallEffect.c  ****             }
 120:HallEffect.c  ****             count++;
 121:HallEffect.c  ****         }
 122:HallEffect.c  ****         //Deactivate the column pin
 123:HallEffect.c  ****         (*pinWriteArr[calibrationKey[COLUMN_INDEX]])(LOW);
 124:HallEffect.c  ****     }
 125:HallEffect.c  ****      
 126:HallEffect.c  ****     //Save new min and max values if calibration happened this boot
 127:HallEffect.c  ****     //A row in eeprom saves 16 bytes, which is enough to store the min and max values of 4 switches
 128:HallEffect.c  ****     if(calibrationDoneThisInit){
 129:HallEffect.c  ****         for(row = 0; row < ROWS; row++){
 130:HallEffect.c  ****             for(col = 0; col < COLUMNS; col++){
 131:HallEffect.c  ****                 //A conversion from uint16 to two uint8 is needed
 132:HallEffect.c  ****                 //Get the first 8 bits MSB first
 133:HallEffect.c  ****                 rowData[col * COLUMNS] = (uint8)(matrix[row][col].min >> 8);
 134:HallEffect.c  ****                 //Get the remaining 8 bits, 255 = 11111111
 135:HallEffect.c  ****                 rowData[col * COLUMNS + 1] = (uint8)(matrix[row][col].min & 255);
 136:HallEffect.c  ****                 //Same for the max value
 137:HallEffect.c  ****                 rowData[col * COLUMNS + 2] = (uint8)(matrix[row][col].max >> 8);
 138:HallEffect.c  ****                 rowData[col * COLUMNS + 3] = (uint8)(matrix[row][col].max & 255);
 139:HallEffect.c  ****             }
 140:HallEffect.c  ****             //Write data one row at a time to save on write cycles
 141:HallEffect.c  ****             EEPROM_Write(rowData, row);
 142:HallEffect.c  ****         }
 143:HallEffect.c  ****         
 144:HallEffect.c  ****     //Get min and max from EEPROM otherwise
ARM GAS  C:\Users\z004e6he\AppData\Local\Temp\cc9aJYfw.s 			page 4


 145:HallEffect.c  ****     }else{
 146:HallEffect.c  ****         uint16 eeprom_min, eeprom_max;
 147:HallEffect.c  ****         for(row = 0; row < ROWS; row++){
 148:HallEffect.c  ****             for(col = 0; col < COLUMNS; col++){
 149:HallEffect.c  ****                 //EEPROM saves in bytes, so a conversion from two bytes to one uint16 is needed
 150:HallEffect.c  ****                 //Grab the first 8 bits
 151:HallEffect.c  ****                 eeprom_min = EEPROM_ReadByte(row * ROWS*COLUMNS + col * COLUMNS) << 8;
 152:HallEffect.c  ****                 //Shift the first 8 bits to the left to make room for the second byte
 153:HallEffect.c  ****                 //Grab the second byte that is part of the min value
 154:HallEffect.c  ****                 eeprom_min |= EEPROM_ReadByte(row * ROWS*COLUMNS + col * COLUMNS + 1);
 155:HallEffect.c  ****                 //Do the same for the max value
 156:HallEffect.c  ****                 eeprom_max = EEPROM_ReadByte(row * ROWS*COLUMNS + col * COLUMNS + 2) << 8;
 157:HallEffect.c  ****                 eeprom_max |= EEPROM_ReadByte(row * ROWS*COLUMNS + col * COLUMNS + 3);
 158:HallEffect.c  ****                 //Save the read values to the switch struct
 159:HallEffect.c  ****                 matrix[row][col].min = eeprom_min;
 160:HallEffect.c  ****                 matrix[row][col].max = eeprom_max;
 161:HallEffect.c  ****             }
 162:HallEffect.c  ****         }
 163:HallEffect.c  ****     }
 164:HallEffect.c  ****     #endif
 165:HallEffect.c  ****         
 166:HallEffect.c  ****     //Set the individual trigger heights per switch
 167:HallEffect.c  ****     for(row = 0; row < ROWS; row++){
 168:HallEffect.c  ****         for(col = 0; col < COLUMNS; col++){
 169:HallEffect.c  ****             #ifdef CALIBRATE_SWITCHES
 170:HallEffect.c  ****             //Convert mm value to adc value at initialization to avoid conversions each matrix scan
 171:HallEffect.c  ****             matrix[row][col].trigger_height = convertToVal(triggerHeight[row][col], matrix[row][col
 172:HallEffect.c  ****                                                            matrix[row][col].max, MODE_CONVERT_HEIGH
 173:HallEffect.c  ****             #ifdef RAPID_TRIGGER
 174:HallEffect.c  ****             matrix[row][col].rapid_distance = convertToVal(rapidDistance[row][col], matrix[row][col
 175:HallEffect.c  ****                                                            matrix[row][col].max, MODE_CONVERT_DISTA
 176:HallEffect.c  ****             #endif
 177:HallEffect.c  ****                 
 178:HallEffect.c  ****             #else
 179:HallEffect.c  ****             matrix[row][col].trigger_height = convertToVal(triggerHeight[row][col], MODE_CONVERT_HE
 180:HallEffect.c  ****             #ifdef RAPID_TRIGGER
 181:HallEffect.c  ****             rapidTriggerDistance = convertToVal(RAPID_TRIGGER, MODE_CONVERT_DISTANCE);
 182:HallEffect.c  ****             #endif
 183:HallEffect.c  ****             #endif
 184:HallEffect.c  ****             //Reset switch pressed status
 185:HallEffect.c  ****             matrix[row][col].pressed = FALSE;
 186:HallEffect.c  ****             
 187:HallEffect.c  ****             //If Rapid Trigger is enabled, reset low value
 188:HallEffect.c  ****             #ifdef RAPID_TRIGGER
 189:HallEffect.c  ****             matrix[row][col].lowest_val = matrix[row][col].trigger_height;
 190:HallEffect.c  ****             #endif
 191:HallEffect.c  ****         }
 192:HallEffect.c  ****     }
 193:HallEffect.c  **** }
 194:HallEffect.c  **** 
 195:HallEffect.c  **** /* Get switch values and set switch states, runs every loop */
 196:HallEffect.c  **** void scanMatrix(void){
  28              		.loc 1 196 0
  29              		.cfi_startproc
  30              		@ args = 0, pretend = 0, frame = 0
  31              		@ frame_needed = 0, uses_anonymous_args = 0
  32 0000 2DE9F041 		push	{r4, r5, r6, r7, r8, lr}
ARM GAS  C:\Users\z004e6he\AppData\Local\Temp\cc9aJYfw.s 			page 5


  33              		.cfi_def_cfa_offset 24
  34              		.cfi_offset 4, -24
  35              		.cfi_offset 5, -20
  36              		.cfi_offset 6, -16
  37              		.cfi_offset 7, -12
  38              		.cfi_offset 8, -8
  39              		.cfi_offset 14, -4
  40              	.LVL0:
 197:HallEffect.c  ****     uint8 row, col;
 198:HallEffect.c  ****     for(row = 0; row < ROWS; row++){
  41              		.loc 1 198 0
  42 0004 0025     		movs	r5, #0
  43 0006 95E0     		b	.L2
  44              	.LVL1:
  45              	.L9:
 199:HallEffect.c  ****         //Select the correct Mux channel to read the desired input
 200:HallEffect.c  ****         AMux_Select(row);
  46              		.loc 1 200 0
  47 0008 2846     		mov	r0, r5
  48 000a FFF7FEFF 		bl	AMux_FastSelect
  49              	.LVL2:
 201:HallEffect.c  ****         for(col = 0; col < COLUMNS; col++){
  50              		.loc 1 201 0
  51 000e 0024     		movs	r4, #0
  52 0010 8BE0     		b	.L3
  53              	.LVL3:
  54              	.L8:
 202:HallEffect.c  ****             //Check if switch location is used, ignore if it isn't
 203:HallEffect.c  ****             if(matrix[row][col].trigger_height > 0){
  55              		.loc 1 203 0
  56 0012 2E46     		mov	r6, r5
  57 0014 2746     		mov	r7, r4
  58 0016 04EB4403 		add	r3, r4, r4, lsl #1
  59 001a 9A00     		lsls	r2, r3, #2
  60 001c 05EB4501 		add	r1, r5, r5, lsl #1
  61 0020 0B01     		lsls	r3, r1, #4
  62 0022 1344     		add	r3, r3, r2
  63 0024 464A     		ldr	r2, .L11
  64 0026 1344     		add	r3, r3, r2
  65 0028 5B88     		ldrh	r3, [r3, #2]
  66 002a 9BB2     		uxth	r3, r3
  67 002c 002B     		cmp	r3, #0
  68 002e 7AD0     		beq	.L4
  69              	.LBB2:
 204:HallEffect.c  ****                 //Activate the relevant column pin
 205:HallEffect.c  ****                 (*pinWriteArr[col])(HIGH);
  70              		.loc 1 205 0
  71 0030 444B     		ldr	r3, .L11+4
  72 0032 53F82430 		ldr	r3, [r3, r4, lsl #2]
  73 0036 0120     		movs	r0, #1
  74 0038 9847     		blx	r3
  75              	.LVL4:
 206:HallEffect.c  ****                 CyDelayUs(SCAN_DELAY);
  76              		.loc 1 206 0
  77 003a 4620     		movs	r0, #70
  78 003c FFF7FEFF 		bl	CyDelayUs
  79              	.LVL5:
ARM GAS  C:\Users\z004e6he\AppData\Local\Temp\cc9aJYfw.s 			page 6


 207:HallEffect.c  ****                 uint16 val = ADC_Read16();
  80              		.loc 1 207 0
  81 0040 FFF7FEFF 		bl	ADC_Read16
  82              	.LVL6:
  83 0044 80B2     		uxth	r0, r0
  84              	.LVL7:
 208:HallEffect.c  ****                 //Read row pin to check if switch is activated, save state in 2D array
 209:HallEffect.c  ****                 //The read value is lower the further the switch is pressed
 210:HallEffect.c  ****                 if(val < (matrix[row][col].trigger_height - HYSTERESIS)){
  85              		.loc 1 210 0
  86 0046 04EB4403 		add	r3, r4, r4, lsl #1
  87 004a 9A00     		lsls	r2, r3, #2
  88 004c 05EB4501 		add	r1, r5, r5, lsl #1
  89 0050 0B01     		lsls	r3, r1, #4
  90 0052 1344     		add	r3, r3, r2
  91 0054 3A4A     		ldr	r2, .L11
  92 0056 1344     		add	r3, r3, r2
  93 0058 5B88     		ldrh	r3, [r3, #2]
  94 005a 9BB2     		uxth	r3, r3
  95 005c 073B     		subs	r3, r3, #7
  96 005e 9842     		cmp	r0, r3
  97 0060 52DA     		bge	.L5
 211:HallEffect.c  ****                     //Rapid trigger logic, only compiled when needed
 212:HallEffect.c  ****                     #ifdef RAPID_TRIGGER
 213:HallEffect.c  ****                     //Set the lowest value if needed
 214:HallEffect.c  ****                     if(val < (matrix[row][col].lowest_val - HYSTERESIS)){
  98              		.loc 1 214 0
  99 0062 04EB4403 		add	r3, r4, r4, lsl #1
 100 0066 9A00     		lsls	r2, r3, #2
 101 0068 05EB4501 		add	r1, r5, r5, lsl #1
 102 006c 0B01     		lsls	r3, r1, #4
 103 006e 1344     		add	r3, r3, r2
 104 0070 334A     		ldr	r2, .L11
 105 0072 1344     		add	r3, r3, r2
 106 0074 9B88     		ldrh	r3, [r3, #4]
 107 0076 9BB2     		uxth	r3, r3
 108 0078 073B     		subs	r3, r3, #7
 109 007a 9842     		cmp	r0, r3
 110 007c 13DA     		bge	.L6
 215:HallEffect.c  ****                         matrix[row][col].lowest_val = val;
 111              		.loc 1 215 0
 112 007e 9646     		mov	lr, r2
 113 0080 6100     		lsls	r1, r4, #1
 114 0082 0B19     		adds	r3, r1, r4
 115 0084 4FEA830C 		lsl	ip, r3, #2
 116 0088 6A00     		lsls	r2, r5, #1
 117 008a 02EB0508 		add	r8, r2, r5
 118 008e 4FEA0813 		lsl	r3, r8, #4
 119 0092 9846     		mov	r8, r3
 120 0094 6344     		add	r3, r3, ip
 121 0096 7344     		add	r3, r3, lr
 122 0098 9880     		strh	r0, [r3, #4]	@ movhi
 216:HallEffect.c  ****                         matrix[row][col].pressed = TRUE;
 123              		.loc 1 216 0
 124 009a 4346     		mov	r3, r8
 125 009c 6344     		add	r3, r3, ip
 126 009e 0122     		movs	r2, #1
ARM GAS  C:\Users\z004e6he\AppData\Local\Temp\cc9aJYfw.s 			page 7


 127 00a0 0EF80320 		strb	r2, [lr, r3]
 128 00a4 3AE0     		b	.L7
 129              	.L6:
 217:HallEffect.c  ****                     //Reset the switch pressed status if it's been lifted past the rapid trigger di
 218:HallEffect.c  ****                     }else if((val - matrix[row][col].lowest_val - HYSTERESIS) > matrix[row][col].ra
 130              		.loc 1 218 0
 131 00a6 6100     		lsls	r1, r4, #1
 132 00a8 2144     		add	r1, r1, r4
 133 00aa 8A00     		lsls	r2, r1, #2
 134 00ac 6900     		lsls	r1, r5, #1
 135 00ae 2944     		add	r1, r1, r5
 136 00b0 0B01     		lsls	r3, r1, #4
 137 00b2 1344     		add	r3, r3, r2
 138 00b4 224A     		ldr	r2, .L11
 139 00b6 1A44     		add	r2, r2, r3
 140 00b8 9388     		ldrh	r3, [r2, #4]
 141 00ba 9BB2     		uxth	r3, r3
 142 00bc C31A     		subs	r3, r0, r3
 143 00be 073B     		subs	r3, r3, #7
 144 00c0 D288     		ldrh	r2, [r2, #6]
 145 00c2 92B2     		uxth	r2, r2
 146 00c4 9342     		cmp	r3, r2
 147 00c6 29DD     		ble	.L7
 219:HallEffect.c  ****                         matrix[row][col].pressed = FALSE;
 148              		.loc 1 219 0
 149 00c8 DFF874E0 		ldr	lr, .L11
 150 00cc 6100     		lsls	r1, r4, #1
 151 00ce 0B19     		adds	r3, r1, r4
 152 00d0 4FEA830C 		lsl	ip, r3, #2
 153 00d4 6A00     		lsls	r2, r5, #1
 154 00d6 02EB0508 		add	r8, r2, r5
 155 00da 4FEA0813 		lsl	r3, r8, #4
 156 00de 6344     		add	r3, r3, ip
 157 00e0 0EEB030C 		add	ip, lr, r3
 158 00e4 4FF00008 		mov	r8, #0
 159 00e8 0EF80380 		strb	r8, [lr, r3]
 220:HallEffect.c  ****                         //Set the rapid trigger activation threshold
 221:HallEffect.c  ****                         matrix[row][col].lowest_val = val - matrix[row][col].rapid_distance;
 160              		.loc 1 221 0
 161 00ec BCF80630 		ldrh	r3, [ip, #6]
 162 00f0 9BB2     		uxth	r3, r3
 163 00f2 C01A     		subs	r0, r0, r3
 164              	.LVL8:
 165 00f4 80B2     		uxth	r0, r0
 166 00f6 2144     		add	r1, r1, r4
 167 00f8 4FEA810C 		lsl	ip, r1, #2
 168 00fc 1644     		add	r6, r6, r2
 169 00fe 3301     		lsls	r3, r6, #4
 170 0100 6344     		add	r3, r3, ip
 171 0102 7344     		add	r3, r3, lr
 172 0104 9880     		strh	r0, [r3, #4]	@ movhi
 173 0106 09E0     		b	.L7
 174              	.LVL9:
 175              	.L5:
 222:HallEffect.c  ****                     }
 223:HallEffect.c  ****                     #else
 224:HallEffect.c  ****                     //Set switch state if pressed
ARM GAS  C:\Users\z004e6he\AppData\Local\Temp\cc9aJYfw.s 			page 8


 225:HallEffect.c  ****                     matrix[row][col].pressed = TRUE;
 226:HallEffect.c  ****                     #endif
 227:HallEffect.c  ****                 }else{
 228:HallEffect.c  ****                     //Reset switch state if not pressed
 229:HallEffect.c  ****                     matrix[row][col].pressed = FALSE;
 176              		.loc 1 229 0
 177 0108 04EB4403 		add	r3, r4, r4, lsl #1
 178 010c 9A00     		lsls	r2, r3, #2
 179 010e 05EB4506 		add	r6, r5, r5, lsl #1
 180 0112 3301     		lsls	r3, r6, #4
 181 0114 1344     		add	r3, r3, r2
 182 0116 0021     		movs	r1, #0
 183 0118 094A     		ldr	r2, .L11
 184 011a D154     		strb	r1, [r2, r3]
 185              	.LVL10:
 186              	.L7:
 230:HallEffect.c  ****                 }
 231:HallEffect.c  ****                 //Deactivate the column pin at end of column scan to avoid ghosting issues
 232:HallEffect.c  ****                 (*pinWriteArr[col])(LOW);
 187              		.loc 1 232 0
 188 011c 094B     		ldr	r3, .L11+4
 189 011e 53F82730 		ldr	r3, [r3, r7, lsl #2]
 190 0122 0020     		movs	r0, #0
 191 0124 9847     		blx	r3
 192              	.LVL11:
 193              	.L4:
 194              	.LBE2:
 201:HallEffect.c  ****             //Check if switch location is used, ignore if it isn't
 195              		.loc 1 201 0 discriminator 2
 196 0126 0134     		adds	r4, r4, #1
 197              	.LVL12:
 198 0128 E4B2     		uxtb	r4, r4
 199              	.LVL13:
 200              	.L3:
 201:HallEffect.c  ****             //Check if switch location is used, ignore if it isn't
 201              		.loc 1 201 0 is_stmt 0 discriminator 1
 202 012a 032C     		cmp	r4, #3
 203 012c 7FF671AF 		bls	.L8
 198:HallEffect.c  ****         //Select the correct Mux channel to read the desired input
 204              		.loc 1 198 0 is_stmt 1 discriminator 2
 205 0130 0135     		adds	r5, r5, #1
 206              	.LVL14:
 207 0132 EDB2     		uxtb	r5, r5
 208              	.LVL15:
 209              	.L2:
 198:HallEffect.c  ****         //Select the correct Mux channel to read the desired input
 210              		.loc 1 198 0 is_stmt 0 discriminator 1
 211 0134 032D     		cmp	r5, #3
 212 0136 7FF667AF 		bls	.L9
 233:HallEffect.c  ****             }
 234:HallEffect.c  ****         }
 235:HallEffect.c  ****     }
 236:HallEffect.c  **** }
 213              		.loc 1 236 0 is_stmt 1
 214 013a BDE8F081 		pop	{r4, r5, r6, r7, r8, pc}
 215              	.LVL16:
 216              	.L12:
ARM GAS  C:\Users\z004e6he\AppData\Local\Temp\cc9aJYfw.s 			page 9


 217 013e 00BF     		.align	2
 218              	.L11:
 219 0140 00000000 		.word	matrix
 220 0144 00000000 		.word	.LANCHOR0
 221              		.cfi_endproc
 222              	.LFE65:
 223              		.size	scanMatrix, .-scanMatrix
 224              		.section	.text.updateKeyEvents,"ax",%progbits
 225              		.align	2
 226              		.global	updateKeyEvents
 227              		.thumb
 228              		.thumb_func
 229              		.type	updateKeyEvents, %function
 230              	updateKeyEvents:
 231              	.LFB66:
 237:HallEffect.c  **** 
 238:HallEffect.c  **** /* Check if key was pressed last scan */
 239:HallEffect.c  **** void updateKeyEvents(void){
 232              		.loc 1 239 0
 233              		.cfi_startproc
 234              		@ args = 0, pretend = 0, frame = 0
 235              		@ frame_needed = 0, uses_anonymous_args = 0
 236              		@ link register save eliminated.
 237 0000 10B4     		push	{r4}
 238              		.cfi_def_cfa_offset 4
 239              		.cfi_offset 4, -4
 240              	.LVL17:
 240:HallEffect.c  ****     uint8 row, col;
 241:HallEffect.c  ****     //Check if keydown or keyup event happened and set state accordingly
 242:HallEffect.c  ****     for(row = 0; row < ROWS; row++){
 241              		.loc 1 242 0
 242 0002 0021     		movs	r1, #0
 243 0004 19E0     		b	.L14
 244              	.LVL18:
 245              	.L17:
 243:HallEffect.c  ****         for(col = 0; col < COLUMNS; col++){
 244:HallEffect.c  ****             if(matrix[row][col].pressed){
 246              		.loc 1 244 0
 247 0006 03EB4302 		add	r2, r3, r3, lsl #1
 248 000a 9000     		lsls	r0, r2, #2
 249 000c 01EB4104 		add	r4, r1, r1, lsl #1
 250 0010 2201     		lsls	r2, r4, #4
 251 0012 0244     		add	r2, r2, r0
 252 0014 0B48     		ldr	r0, .L21
 253 0016 825C     		ldrb	r2, [r0, r2]	@ zero_extendqisi2
 254 0018 12F0FF0F 		tst	r2, #255
 255 001c 05D0     		beq	.L15
 245:HallEffect.c  ****                 action = row*ROWS+col;
 256              		.loc 1 245 0
 257 001e 03EB8103 		add	r3, r3, r1, lsl #2
 258              	.LVL19:
 259 0022 DBB2     		uxtb	r3, r3
 260 0024 084A     		ldr	r2, .L21+4
 261 0026 1370     		strb	r3, [r2]
 246:HallEffect.c  ****                 break;
 262              		.loc 1 246 0
 263 0028 05E0     		b	.L16
ARM GAS  C:\Users\z004e6he\AppData\Local\Temp\cc9aJYfw.s 			page 10


 264              	.LVL20:
 265              	.L15:
 243:HallEffect.c  ****         for(col = 0; col < COLUMNS; col++){
 266              		.loc 1 243 0 discriminator 2
 267 002a 0133     		adds	r3, r3, #1
 268              	.LVL21:
 269 002c DBB2     		uxtb	r3, r3
 270              	.LVL22:
 271 002e 00E0     		b	.L18
 272              	.LVL23:
 273              	.L19:
 274 0030 0023     		movs	r3, #0
 275              	.L18:
 276              	.LVL24:
 243:HallEffect.c  ****         for(col = 0; col < COLUMNS; col++){
 277              		.loc 1 243 0 is_stmt 0 discriminator 1
 278 0032 032B     		cmp	r3, #3
 279 0034 E7D9     		bls	.L17
 280              	.LVL25:
 281              	.L16:
 242:HallEffect.c  ****         for(col = 0; col < COLUMNS; col++){
 282              		.loc 1 242 0 is_stmt 1 discriminator 2
 283 0036 0131     		adds	r1, r1, #1
 284              	.LVL26:
 285 0038 C9B2     		uxtb	r1, r1
 286              	.LVL27:
 287              	.L14:
 242:HallEffect.c  ****         for(col = 0; col < COLUMNS; col++){
 288              		.loc 1 242 0 is_stmt 0 discriminator 1
 289 003a 0329     		cmp	r1, #3
 290 003c F8D9     		bls	.L19
 247:HallEffect.c  ****             }
 248:HallEffect.c  ****         }
 249:HallEffect.c  ****     }
 250:HallEffect.c  **** }
 291              		.loc 1 250 0 is_stmt 1
 292 003e 10BC     		pop	{r4}
 293              		.cfi_restore 4
 294              		.cfi_def_cfa_offset 0
 295 0040 7047     		bx	lr
 296              	.L22:
 297 0042 00BF     		.align	2
 298              	.L21:
 299 0044 00000000 		.word	matrix
 300 0048 00000000 		.word	action
 301              		.cfi_endproc
 302              	.LFE66:
 303              		.size	updateKeyEvents, .-updateKeyEvents
 304              		.global	__aeabi_f2d
 305              		.global	__aeabi_dsub
 306              		.global	__aeabi_i2d
 307              		.global	__aeabi_ddiv
 308              		.global	__aeabi_dmul
 309              		.global	__aeabi_dadd
 310              		.global	__aeabi_d2uiz
 311              		.global	__aeabi_i2f
 312              		.global	__aeabi_fmul
ARM GAS  C:\Users\z004e6he\AppData\Local\Temp\cc9aJYfw.s 			page 11


 313              		.section	.text.convertToVal,"ax",%progbits
 314              		.align	2
 315              		.global	convertToVal
 316              		.thumb
 317              		.thumb_func
 318              		.type	convertToVal, %function
 319              	convertToVal:
 320              	.LFB67:
 251:HallEffect.c  **** 
 252:HallEffect.c  **** /* Convert the millimeter values to adc values */
 253:HallEffect.c  **** #ifdef CALIBRATE_SWITCHES
 254:HallEffect.c  **** //If calibration is enabled, each switch has a separate conversion constant
 255:HallEffect.c  **** uint16 convertToVal(float height, uint16 min, uint16 max, uint8 mode){
 321              		.loc 1 255 0
 322              		.cfi_startproc
 323              		@ args = 0, pretend = 0, frame = 0
 324              		@ frame_needed = 0, uses_anonymous_args = 0
 325              	.LVL28:
 326 0000 2DE9F843 		push	{r3, r4, r5, r6, r7, r8, r9, lr}
 327              		.cfi_def_cfa_offset 32
 328              		.cfi_offset 3, -32
 329              		.cfi_offset 4, -28
 330              		.cfi_offset 5, -24
 331              		.cfi_offset 6, -20
 332              		.cfi_offset 7, -16
 333              		.cfi_offset 8, -12
 334              		.cfi_offset 9, -8
 335              		.cfi_offset 14, -4
 336 0004 0546     		mov	r5, r0
 337 0006 0C46     		mov	r4, r1
 338 0008 1646     		mov	r6, r2
 256:HallEffect.c  ****     if(mode == MODE_CONVERT_HEIGHT){
 339              		.loc 1 256 0
 340 000a 33BB     		cbnz	r3, .L24
 257:HallEffect.c  ****         return((MAX_TRIGGER_HEIGHT - height) * ((max - min) / MAX_TRIGGER_HEIGHT) + min);
 341              		.loc 1 257 0
 342 000c FFF7FEFF 		bl	__aeabi_f2d
 343              	.LVL29:
 344 0010 0246     		mov	r2, r0
 345 0012 0B46     		mov	r3, r1
 346 0014 1AA1     		adr	r1, .L27
 347 0016 D1E90001 		ldrd	r0, [r1]
 348 001a FFF7FEFF 		bl	__aeabi_dsub
 349              	.LVL30:
 350 001e 8046     		mov	r8, r0
 351 0020 8946     		mov	r9, r1
 352 0022 301B     		subs	r0, r6, r4
 353 0024 FFF7FEFF 		bl	__aeabi_i2d
 354              	.LVL31:
 355 0028 15A3     		adr	r3, .L27
 356 002a D3E90023 		ldrd	r2, [r3]
 357 002e FFF7FEFF 		bl	__aeabi_ddiv
 358              	.LVL32:
 359 0032 0246     		mov	r2, r0
 360 0034 0B46     		mov	r3, r1
 361 0036 4046     		mov	r0, r8
 362 0038 4946     		mov	r1, r9
ARM GAS  C:\Users\z004e6he\AppData\Local\Temp\cc9aJYfw.s 			page 12


 363 003a FFF7FEFF 		bl	__aeabi_dmul
 364              	.LVL33:
 365 003e 0646     		mov	r6, r0
 366 0040 0F46     		mov	r7, r1
 367 0042 2046     		mov	r0, r4
 368 0044 FFF7FEFF 		bl	__aeabi_i2d
 369              	.LVL34:
 370 0048 3246     		mov	r2, r6
 371 004a 3B46     		mov	r3, r7
 372 004c FFF7FEFF 		bl	__aeabi_dadd
 373              	.LVL35:
 374 0050 FFF7FEFF 		bl	__aeabi_d2uiz
 375              	.LVL36:
 376 0054 80B2     		uxth	r0, r0
 377 0056 BDE8F883 		pop	{r3, r4, r5, r6, r7, r8, r9, pc}
 378              	.LVL37:
 379              	.L24:
 258:HallEffect.c  ****     }else{
 259:HallEffect.c  ****         return(height * (max - min) / MAX_TRIGGER_HEIGHT);
 380              		.loc 1 259 0
 381 005a 501A     		subs	r0, r2, r1
 382              	.LVL38:
 383 005c FFF7FEFF 		bl	__aeabi_i2f
 384              	.LVL39:
 385 0060 2946     		mov	r1, r5
 386 0062 FFF7FEFF 		bl	__aeabi_fmul
 387              	.LVL40:
 388 0066 FFF7FEFF 		bl	__aeabi_f2d
 389              	.LVL41:
 390 006a 05A3     		adr	r3, .L27
 391 006c D3E90023 		ldrd	r2, [r3]
 392 0070 FFF7FEFF 		bl	__aeabi_ddiv
 393              	.LVL42:
 394 0074 FFF7FEFF 		bl	__aeabi_d2uiz
 395              	.LVL43:
 396 0078 80B2     		uxth	r0, r0
 260:HallEffect.c  ****     }
 261:HallEffect.c  **** }
 397              		.loc 1 261 0
 398 007a BDE8F883 		pop	{r3, r4, r5, r6, r7, r8, r9, pc}
 399              	.LVL44:
 400              	.L28:
 401 007e 00BF     		.align	3
 402              	.L27:
 403 0080 66666666 		.word	1717986918
 404 0084 66660E40 		.word	1074685542
 405              		.cfi_endproc
 406              	.LFE67:
 407              		.size	convertToVal, .-convertToVal
 408              		.section	.text.calibrateSwitches,"ax",%progbits
 409              		.align	2
 410              		.global	calibrateSwitches
 411              		.thumb
 412              		.thumb_func
 413              		.type	calibrateSwitches, %function
 414              	calibrateSwitches:
 415              	.LFB68:
ARM GAS  C:\Users\z004e6he\AppData\Local\Temp\cc9aJYfw.s 			page 13


 262:HallEffect.c  **** #else
 263:HallEffect.c  **** //If calibration isn't enabled, constants are used instead
 264:HallEffect.c  **** uint16 convertToVal(float height, uint8 mode){
 265:HallEffect.c  ****     if(mode == MODE_CONVERT_HEIGHT){
 266:HallEffect.c  ****         return((MAX_TRIGGER_HEIGHT - height) * CONVERSION_FACTOR + CONVERSION_OFFSET);
 267:HallEffect.c  ****     }else{
 268:HallEffect.c  ****         return(height * CONVERSION_FACTOR);
 269:HallEffect.c  ****     }
 270:HallEffect.c  **** }
 271:HallEffect.c  **** #endif
 272:HallEffect.c  **** 
 273:HallEffect.c  **** #ifdef CALIBRATE_SWITCHES
 274:HallEffect.c  **** /* Calibrate the switches to allow for accurate readings if the values vary */
 275:HallEffect.c  **** void calibrateSwitches(void){
 416              		.loc 1 275 0
 417              		.cfi_startproc
 418              		@ args = 0, pretend = 0, frame = 0
 419              		@ frame_needed = 0, uses_anonymous_args = 0
 420 0000 2DE9F843 		push	{r3, r4, r5, r6, r7, r8, r9, lr}
 421              		.cfi_def_cfa_offset 32
 422              		.cfi_offset 3, -32
 423              		.cfi_offset 4, -28
 424              		.cfi_offset 5, -24
 425              		.cfi_offset 6, -20
 426              		.cfi_offset 7, -16
 427              		.cfi_offset 8, -12
 428              		.cfi_offset 9, -8
 429              		.cfi_offset 14, -4
 430              	.LVL45:
 276:HallEffect.c  ****     uint8 row, col;
 277:HallEffect.c  ****     uint16 val = 0;
 278:HallEffect.c  ****     
 279:HallEffect.c  ****     //Get the undepressed key values
 280:HallEffect.c  ****     for(row = 0; row < ROWS; row++){
 431              		.loc 1 280 0
 432 0004 0026     		movs	r6, #0
 433 0006 30E0     		b	.L30
 434              	.LVL46:
 435              	.L33:
 281:HallEffect.c  ****         //Set Mux channel to read the correct input
 282:HallEffect.c  ****         AMux_Select(row);
 436              		.loc 1 282 0
 437 0008 3046     		mov	r0, r6
 438 000a FFF7FEFF 		bl	AMux_FastSelect
 439              	.LVL47:
 283:HallEffect.c  ****         for(col = 0; col < COLUMNS; col++){
 440              		.loc 1 283 0
 441 000e 0024     		movs	r4, #0
 442 0010 27E0     		b	.L31
 443              	.LVL48:
 444              	.L32:
 284:HallEffect.c  ****             //Set column pin high
 285:HallEffect.c  ****             (*pinWriteArr[col])(HIGH);
 445              		.loc 1 285 0 discriminator 3
 446 0012 DFF82092 		ldr	r9, .L45+16
 447 0016 59F82430 		ldr	r3, [r9, r4, lsl #2]
 448 001a 0120     		movs	r0, #1
ARM GAS  C:\Users\z004e6he\AppData\Local\Temp\cc9aJYfw.s 			page 14


 449 001c 9847     		blx	r3
 450              	.LVL49:
 286:HallEffect.c  ****             //Read row switch max value and save it in 2d array
 287:HallEffect.c  ****             CyDelayUs(SCAN_DELAY);
 451              		.loc 1 287 0 discriminator 3
 452 001e 4620     		movs	r0, #70
 453 0020 FFF7FEFF 		bl	CyDelayUs
 454              	.LVL50:
 288:HallEffect.c  ****             matrix[row][col].max = ADC_Read16();
 455              		.loc 1 288 0 discriminator 3
 456 0024 FFF7FEFF 		bl	ADC_Read16
 457              	.LVL51:
 458 0028 80B2     		uxth	r0, r0
 459 002a 7E4F     		ldr	r7, .L45
 460 002c 4FEA4408 		lsl	r8, r4, #1
 461 0030 08EB0403 		add	r3, r8, r4
 462 0034 9A00     		lsls	r2, r3, #2
 463 0036 7500     		lsls	r5, r6, #1
 464 0038 A919     		adds	r1, r5, r6
 465 003a 0B01     		lsls	r3, r1, #4
 466 003c 1344     		add	r3, r3, r2
 467 003e 3B44     		add	r3, r3, r7
 468 0040 1881     		strh	r0, [r3, #8]	@ movhi
 289:HallEffect.c  ****             (*pinWriteArr[col])(LOW);
 469              		.loc 1 289 0 discriminator 3
 470 0042 59F82430 		ldr	r3, [r9, r4, lsl #2]
 471 0046 0020     		movs	r0, #0
 472 0048 9847     		blx	r3
 473              	.LVL52:
 290:HallEffect.c  ****             //Set the lowest value of each switch to a known safe value initially
 291:HallEffect.c  ****             matrix[row][col].lowest_val = DEFAULT_TRIGGER_VALUE;
 474              		.loc 1 291 0 discriminator 3
 475 004a A044     		add	r8, r8, r4
 476 004c 4FEA8802 		lsl	r2, r8, #2
 477 0050 3544     		add	r5, r5, r6
 478 0052 2B01     		lsls	r3, r5, #4
 479 0054 1344     		add	r3, r3, r2
 480 0056 3B44     		add	r3, r3, r7
 481 0058 4FF4FA62 		mov	r2, #2000
 482 005c 9A80     		strh	r2, [r3, #4]	@ movhi
 283:HallEffect.c  ****             //Set column pin high
 483              		.loc 1 283 0 discriminator 3
 484 005e 0134     		adds	r4, r4, #1
 485              	.LVL53:
 486 0060 E4B2     		uxtb	r4, r4
 487              	.LVL54:
 488              	.L31:
 283:HallEffect.c  ****             //Set column pin high
 489              		.loc 1 283 0 is_stmt 0 discriminator 1
 490 0062 032C     		cmp	r4, #3
 491 0064 D5D9     		bls	.L32
 280:HallEffect.c  ****         //Set Mux channel to read the correct input
 492              		.loc 1 280 0 is_stmt 1 discriminator 2
 493 0066 0136     		adds	r6, r6, #1
 494              	.LVL55:
 495 0068 F6B2     		uxtb	r6, r6
 496              	.LVL56:
ARM GAS  C:\Users\z004e6he\AppData\Local\Temp\cc9aJYfw.s 			page 15


 497              	.L30:
 280:HallEffect.c  ****         //Set Mux channel to read the correct input
 498              		.loc 1 280 0 is_stmt 0 discriminator 1
 499 006a 032E     		cmp	r6, #3
 500 006c CCD9     		bls	.L33
 292:HallEffect.c  ****         }
 293:HallEffect.c  ****     }       
 294:HallEffect.c  ****     
 295:HallEffect.c  ****     //Read depressed value of each switch one by one
 296:HallEffect.c  ****     UART_PutString("Press each key all the way down to complete the calibration\r\n");
 501              		.loc 1 296 0 is_stmt 1
 502 006e 6E4C     		ldr	r4, .L45+4
 503 0070 2046     		mov	r0, r4
 504 0072 FFF7FEFF 		bl	UART_PutString
 505              	.LVL57:
 297:HallEffect.c  ****     //Output to the display
 298:HallEffect.c  ****     display_clear();
 506              		.loc 1 298 0
 507 0076 FFF7FEFF 		bl	display_clear
 508              	.LVL58:
 299:HallEffect.c  ****     display_update();
 509              		.loc 1 299 0
 510 007a FFF7FEFF 		bl	display_update
 511              	.LVL59:
 300:HallEffect.c  ****     //Set cursor to readable position - for the first ~40 lines only every second one works
 301:HallEffect.c  ****     //If a working display is used, the offset can be set to 0 in config.h
 302:HallEffect.c  ****     gfx_setCursor(0, DISPLAY_OFFSET);
 512              		.loc 1 302 0
 513 007e 2821     		movs	r1, #40
 514 0080 0020     		movs	r0, #0
 515 0082 FFF7FEFF 		bl	gfx_setCursor
 516              	.LVL60:
 303:HallEffect.c  ****     gfx_println("Press each key all the way down to complete the calibration\r\n");
 517              		.loc 1 303 0
 518 0086 2046     		mov	r0, r4
 519 0088 FFF7FEFF 		bl	gfx_println
 520              	.LVL61:
 304:HallEffect.c  ****     display_update();
 521              		.loc 1 304 0
 522 008c FFF7FEFF 		bl	display_update
 523              	.LVL62:
 305:HallEffect.c  ****     
 306:HallEffect.c  ****     val = 0;
 307:HallEffect.c  ****     for(row = 0; row < ROWS; row++){
 524              		.loc 1 307 0
 525 0090 4FF00008 		mov	r8, #0
 526 0094 BFE0     		b	.L34
 527              	.LVL63:
 528              	.L42:
 308:HallEffect.c  ****         AMux_Select(row);
 529              		.loc 1 308 0
 530 0096 4046     		mov	r0, r8
 531 0098 FFF7FEFF 		bl	AMux_FastSelect
 532              	.LVL64:
 309:HallEffect.c  ****         for(col = 0; col < COLUMNS; col++){
 533              		.loc 1 309 0
 534 009c 0027     		movs	r7, #0
ARM GAS  C:\Users\z004e6he\AppData\Local\Temp\cc9aJYfw.s 			page 16


 535 009e B3E0     		b	.L35
 536              	.LVL65:
 537              	.L41:
 538              	.LBB3:
 310:HallEffect.c  ****             //Display the key location here
 311:HallEffect.c  ****             sprintf(Transmitbuffer, "Press and release key [%i/%i]\r\n", row, col);
 539              		.loc 1 311 0
 540 00a0 4546     		mov	r5, r8
 541 00a2 3C46     		mov	r4, r7
 542 00a4 614E     		ldr	r6, .L45+8
 543 00a6 3B46     		mov	r3, r7
 544 00a8 4246     		mov	r2, r8
 545 00aa 6149     		ldr	r1, .L45+12
 546 00ac 3046     		mov	r0, r6
 547 00ae FFF7FEFF 		bl	sprintf
 548              	.LVL66:
 312:HallEffect.c  ****             UART_PutString(Transmitbuffer);
 549              		.loc 1 312 0
 550 00b2 3046     		mov	r0, r6
 551 00b4 FFF7FEFF 		bl	UART_PutString
 552              	.LVL67:
 313:HallEffect.c  ****             //Output to the display
 314:HallEffect.c  ****             display_clear();
 553              		.loc 1 314 0
 554 00b8 FFF7FEFF 		bl	display_clear
 555              	.LVL68:
 315:HallEffect.c  ****             display_update();
 556              		.loc 1 315 0
 557 00bc FFF7FEFF 		bl	display_update
 558              	.LVL69:
 316:HallEffect.c  ****             //Set cursor to readable position - for the first ~40 lines only every second one works
 317:HallEffect.c  ****             //If a working display is used, the offset can be set to 0 in config.h
 318:HallEffect.c  ****             gfx_setCursor(0, DISPLAY_OFFSET);
 559              		.loc 1 318 0
 560 00c0 2821     		movs	r1, #40
 561 00c2 0020     		movs	r0, #0
 562 00c4 FFF7FEFF 		bl	gfx_setCursor
 563              	.LVL70:
 319:HallEffect.c  ****             gfx_println(Transmitbuffer);
 564              		.loc 1 319 0
 565 00c8 3046     		mov	r0, r6
 566 00ca FFF7FEFF 		bl	gfx_println
 567              	.LVL71:
 320:HallEffect.c  ****             display_update();
 568              		.loc 1 320 0
 569 00ce FFF7FEFF 		bl	display_update
 570              	.LVL72:
 321:HallEffect.c  ****             //Tracks if the lowest point has been reached
 322:HallEffect.c  ****             uint8 lowestPointMeasured = FALSE;
 323:HallEffect.c  ****             //Tracks if the calibration for the switch is complete
 324:HallEffect.c  ****             uint8 complete = FALSE;
 325:HallEffect.c  ****             //Pull the column pin high
 326:HallEffect.c  ****             (*pinWriteArr[col])(HIGH);
 571              		.loc 1 326 0
 572 00d2 584B     		ldr	r3, .L45+16
 573 00d4 53F82730 		ldr	r3, [r3, r7, lsl #2]
 574 00d8 0120     		movs	r0, #1
ARM GAS  C:\Users\z004e6he\AppData\Local\Temp\cc9aJYfw.s 			page 17


 575 00da 9847     		blx	r3
 576              	.LVL73:
 327:HallEffect.c  ****             CyDelayUs(SCAN_DELAY);
 577              		.loc 1 327 0
 578 00dc 4620     		movs	r0, #70
 579 00de FFF7FEFF 		bl	CyDelayUs
 580              	.LVL74:
 322:HallEffect.c  ****             //Tracks if the calibration for the switch is complete
 581              		.loc 1 322 0
 582 00e2 0026     		movs	r6, #0
 328:HallEffect.c  ****             //Loop while the lowest point hasn't been reached
 329:HallEffect.c  ****             while(!lowestPointMeasured){
 583              		.loc 1 329 0
 584 00e4 45E0     		b	.L36
 585              	.LVL75:
 586              	.L39:
 330:HallEffect.c  ****                 val = ADC_Read16();
 587              		.loc 1 330 0
 588 00e6 FFF7FEFF 		bl	ADC_Read16
 589              	.LVL76:
 590 00ea 82B2     		uxth	r2, r0
 591              	.LVL77:
 331:HallEffect.c  ****                 if(val < DEFAULT_TRIGGER_VALUE){
 592              		.loc 1 331 0
 593 00ec B2F5FA6F 		cmp	r2, #2000
 594 00f0 30D2     		bcs	.L37
 332:HallEffect.c  ****                     if(val < matrix[row][col].lowest_val){
 595              		.loc 1 332 0
 596 00f2 04EB4403 		add	r3, r4, r4, lsl #1
 597 00f6 9900     		lsls	r1, r3, #2
 598 00f8 05EB4500 		add	r0, r5, r5, lsl #1
 599 00fc 0301     		lsls	r3, r0, #4
 600 00fe 0B44     		add	r3, r3, r1
 601 0100 4849     		ldr	r1, .L45
 602 0102 0B44     		add	r3, r3, r1
 603 0104 9B88     		ldrh	r3, [r3, #4]
 604 0106 9BB2     		uxth	r3, r3
 605 0108 9A42     		cmp	r2, r3
 606 010a 32D2     		bcs	.L36
 333:HallEffect.c  ****                         matrix[row][col].lowest_val = val;
 607              		.loc 1 333 0
 608 010c 04EB4403 		add	r3, r4, r4, lsl #1
 609 0110 9900     		lsls	r1, r3, #2
 610 0112 05EB4500 		add	r0, r5, r5, lsl #1
 611 0116 0301     		lsls	r3, r0, #4
 612 0118 0B44     		add	r3, r3, r1
 613 011a 4249     		ldr	r1, .L45
 614 011c 0B44     		add	r3, r3, r1
 615 011e 9A80     		strh	r2, [r3, #4]	@ movhi
 334:HallEffect.c  ****                         sprintf(Transmitbuffer, "lowest: %i\r\n", val);
 616              		.loc 1 334 0
 617 0120 DFF80891 		ldr	r9, .L45+8
 618 0124 4449     		ldr	r1, .L45+20
 619 0126 4846     		mov	r0, r9
 620 0128 FFF7FEFF 		bl	sprintf
 621              	.LVL78:
 335:HallEffect.c  ****                         UART_PutString(Transmitbuffer);
ARM GAS  C:\Users\z004e6he\AppData\Local\Temp\cc9aJYfw.s 			page 18


 622              		.loc 1 335 0
 623 012c 4846     		mov	r0, r9
 624 012e FFF7FEFF 		bl	UART_PutString
 625              	.LVL79:
 336:HallEffect.c  ****                         //Output to the display
 337:HallEffect.c  ****                         display_clear();
 626              		.loc 1 337 0
 627 0132 FFF7FEFF 		bl	display_clear
 628              	.LVL80:
 338:HallEffect.c  ****                         display_update();
 629              		.loc 1 338 0
 630 0136 FFF7FEFF 		bl	display_update
 631              	.LVL81:
 339:HallEffect.c  ****                         //Set cursor to readable position - for the first ~40 lines only every seco
 340:HallEffect.c  ****                         //If a working display is used, the offset can be set to 0 in config.h
 341:HallEffect.c  ****                         gfx_setCursor(0, DISPLAY_OFFSET);
 632              		.loc 1 341 0
 633 013a 2821     		movs	r1, #40
 634 013c 0020     		movs	r0, #0
 635 013e FFF7FEFF 		bl	gfx_setCursor
 636              	.LVL82:
 342:HallEffect.c  ****                         gfx_setTextSize(1);
 637              		.loc 1 342 0
 638 0142 0120     		movs	r0, #1
 639 0144 FFF7FEFF 		bl	gfx_setTextSize
 640              	.LVL83:
 343:HallEffect.c  ****                         gfx_println(Transmitbuffer);
 641              		.loc 1 343 0
 642 0148 4846     		mov	r0, r9
 643 014a FFF7FEFF 		bl	gfx_println
 644              	.LVL84:
 344:HallEffect.c  ****                         display_update();
 645              		.loc 1 344 0
 646 014e FFF7FEFF 		bl	display_update
 647              	.LVL85:
 648 0152 0EE0     		b	.L36
 649              	.LVL86:
 650              	.L37:
 345:HallEffect.c  ****                     }
 346:HallEffect.c  ****                 }else if(matrix[row][col].lowest_val < (DEFAULT_TRIGGER_VALUE)){
 651              		.loc 1 346 0
 652 0154 04EB4403 		add	r3, r4, r4, lsl #1
 653 0158 9A00     		lsls	r2, r3, #2
 654              	.LVL87:
 655 015a 05EB4501 		add	r1, r5, r5, lsl #1
 656 015e 0B01     		lsls	r3, r1, #4
 657 0160 1344     		add	r3, r3, r2
 658 0162 304A     		ldr	r2, .L45
 659 0164 1344     		add	r3, r3, r2
 660 0166 9B88     		ldrh	r3, [r3, #4]
 661 0168 9BB2     		uxth	r3, r3
 662 016a B3F5FA6F 		cmp	r3, #2000
 663 016e 00D2     		bcs	.L36
 347:HallEffect.c  ****                     lowestPointMeasured = TRUE;
 664              		.loc 1 347 0
 665 0170 0126     		movs	r6, #1
 666              	.LVL88:
ARM GAS  C:\Users\z004e6he\AppData\Local\Temp\cc9aJYfw.s 			page 19


 667              	.L36:
 329:HallEffect.c  ****                 val = ADC_Read16();
 668              		.loc 1 329 0
 669 0172 002E     		cmp	r6, #0
 670 0174 B7D0     		beq	.L39
 348:HallEffect.c  ****                 }
 349:HallEffect.c  ****             }
 350:HallEffect.c  ****             
 351:HallEffect.c  ****             //Check if the switch has been released again
 352:HallEffect.c  ****             if(!complete){
 353:HallEffect.c  ****                 //Set the minimum switch height and reset the lowest value
 354:HallEffect.c  ****                 if(matrix[row][col].lowest_val < (DEFAULT_TRIGGER_VALUE - HYSTERESIS)){
 671              		.loc 1 354 0
 672 0176 04EB4403 		add	r3, r4, r4, lsl #1
 673 017a 9A00     		lsls	r2, r3, #2
 674 017c 05EB4501 		add	r1, r5, r5, lsl #1
 675 0180 0B01     		lsls	r3, r1, #4
 676 0182 1344     		add	r3, r3, r2
 677 0184 274A     		ldr	r2, .L45
 678 0186 1344     		add	r3, r3, r2
 679 0188 9B88     		ldrh	r3, [r3, #4]
 680 018a 9BB2     		uxth	r3, r3
 681 018c B3F5F96F 		cmp	r3, #1992
 682 0190 30D8     		bhi	.L40
 355:HallEffect.c  ****                     matrix[row][col].min = matrix[row][col].lowest_val;
 683              		.loc 1 355 0
 684 0192 1046     		mov	r0, r2
 685 0194 6100     		lsls	r1, r4, #1
 686 0196 0B19     		adds	r3, r1, r4
 687 0198 9A00     		lsls	r2, r3, #2
 688 019a 6E00     		lsls	r6, r5, #1
 689              	.LVL89:
 690 019c 06EB050E 		add	lr, r6, r5
 691 01a0 4FEA0E13 		lsl	r3, lr, #4
 692 01a4 1344     		add	r3, r3, r2
 693 01a6 0344     		add	r3, r3, r0
 694 01a8 9A88     		ldrh	r2, [r3, #4]
 695 01aa 92B2     		uxth	r2, r2
 696 01ac 5A81     		strh	r2, [r3, #10]	@ movhi
 697              	.LVL90:
 356:HallEffect.c  ****                     //Switch calibration complete, go to next switch
 357:HallEffect.c  ****                     complete = TRUE;
 358:HallEffect.c  ****                     sprintf(Transmitbuffer, "min: %i,\r\nmax: %i\r\n", matrix[row][col].min, matrix
 698              		.loc 1 358 0
 699 01ae 5A89     		ldrh	r2, [r3, #10]
 700 01b0 2144     		add	r1, r1, r4
 701 01b2 4FEA810E 		lsl	lr, r1, #2
 702 01b6 3544     		add	r5, r5, r6
 703 01b8 2B01     		lsls	r3, r5, #4
 704 01ba 7344     		add	r3, r3, lr
 705 01bc 0344     		add	r3, r3, r0
 706 01be 1B89     		ldrh	r3, [r3, #8]
 707 01c0 1A4D     		ldr	r5, .L45+8
 708 01c2 9BB2     		uxth	r3, r3
 709 01c4 92B2     		uxth	r2, r2
 710 01c6 1D49     		ldr	r1, .L45+24
 711 01c8 2846     		mov	r0, r5
ARM GAS  C:\Users\z004e6he\AppData\Local\Temp\cc9aJYfw.s 			page 20


 712 01ca FFF7FEFF 		bl	sprintf
 713              	.LVL91:
 359:HallEffect.c  ****                     UART_PutString(Transmitbuffer);
 714              		.loc 1 359 0
 715 01ce 2846     		mov	r0, r5
 716 01d0 FFF7FEFF 		bl	UART_PutString
 717              	.LVL92:
 360:HallEffect.c  ****                     //Output to the display
 361:HallEffect.c  ****                     display_clear();
 718              		.loc 1 361 0
 719 01d4 FFF7FEFF 		bl	display_clear
 720              	.LVL93:
 362:HallEffect.c  ****                     display_update();
 721              		.loc 1 362 0
 722 01d8 FFF7FEFF 		bl	display_update
 723              	.LVL94:
 363:HallEffect.c  ****                     //Set cursor to readable position - for the first ~40 lines only every second o
 364:HallEffect.c  ****                     //If a working display is used, the offset can be set to 0 in config.h
 365:HallEffect.c  ****                     gfx_setCursor(0, DISPLAY_OFFSET);
 724              		.loc 1 365 0
 725 01dc 2821     		movs	r1, #40
 726 01de 0020     		movs	r0, #0
 727 01e0 FFF7FEFF 		bl	gfx_setCursor
 728              	.LVL95:
 366:HallEffect.c  ****                     gfx_setTextSize(1);
 729              		.loc 1 366 0
 730 01e4 0120     		movs	r0, #1
 731 01e6 FFF7FEFF 		bl	gfx_setTextSize
 732              	.LVL96:
 367:HallEffect.c  ****                     gfx_println(Transmitbuffer);
 733              		.loc 1 367 0
 734 01ea 2846     		mov	r0, r5
 735 01ec FFF7FEFF 		bl	gfx_println
 736              	.LVL97:
 368:HallEffect.c  ****                     display_update();
 737              		.loc 1 368 0
 738 01f0 FFF7FEFF 		bl	display_update
 739              	.LVL98:
 740              	.L40:
 369:HallEffect.c  ****                 }
 370:HallEffect.c  ****                 CyDelay(1);
 741              		.loc 1 370 0
 742 01f4 0120     		movs	r0, #1
 743 01f6 FFF7FEFF 		bl	CyDelay
 744              	.LVL99:
 371:HallEffect.c  ****             }
 372:HallEffect.c  ****             //Deactivate the column pin
 373:HallEffect.c  ****             (*pinWriteArr[col])(LOW);
 745              		.loc 1 373 0
 746 01fa 0E4B     		ldr	r3, .L45+16
 747 01fc 53F82430 		ldr	r3, [r3, r4, lsl #2]
 748 0200 0020     		movs	r0, #0
 749 0202 9847     		blx	r3
 750              	.LVL100:
 751              	.LBE3:
 309:HallEffect.c  ****             //Display the key location here
 752              		.loc 1 309 0
ARM GAS  C:\Users\z004e6he\AppData\Local\Temp\cc9aJYfw.s 			page 21


 753 0204 0137     		adds	r7, r7, #1
 754              	.LVL101:
 755 0206 FFB2     		uxtb	r7, r7
 756              	.LVL102:
 757              	.L35:
 309:HallEffect.c  ****             //Display the key location here
 758              		.loc 1 309 0 is_stmt 0 discriminator 1
 759 0208 032F     		cmp	r7, #3
 760 020a 7FF649AF 		bls	.L41
 307:HallEffect.c  ****         AMux_Select(row);
 761              		.loc 1 307 0 is_stmt 1 discriminator 2
 762 020e 08F10108 		add	r8, r8, #1
 763              	.LVL103:
 764 0212 5FFA88F8 		uxtb	r8, r8
 765              	.LVL104:
 766              	.L34:
 307:HallEffect.c  ****         AMux_Select(row);
 767              		.loc 1 307 0 is_stmt 0 discriminator 1
 768 0216 B8F1030F 		cmp	r8, #3
 769 021a 7FF63CAF 		bls	.L42
 374:HallEffect.c  ****         }
 375:HallEffect.c  ****     }
 376:HallEffect.c  **** }
 770              		.loc 1 376 0 is_stmt 1
 771 021e BDE8F883 		pop	{r3, r4, r5, r6, r7, r8, r9, pc}
 772              	.LVL105:
 773              	.L46:
 774 0222 00BF     		.align	2
 775              	.L45:
 776 0224 00000000 		.word	matrix
 777 0228 00000000 		.word	.LC2
 778 022c 00000000 		.word	Transmitbuffer
 779 0230 40000000 		.word	.LC3
 780 0234 00000000 		.word	.LANCHOR0
 781 0238 60000000 		.word	.LC4
 782 023c 70000000 		.word	.LC5
 783              		.cfi_endproc
 784              	.LFE68:
 785              		.size	calibrateSwitches, .-calibrateSwitches
 786              		.global	__aeabi_f2uiz
 787              		.global	__aeabi_dcmpgt
 788              		.global	__aeabi_dcmplt
 789              		.global	__aeabi_fcmpeq
 790              		.global	__aeabi_fcmpgt
 791              		.section	.text.checkErrors,"ax",%progbits
 792              		.align	2
 793              		.global	checkErrors
 794              		.thumb
 795              		.thumb_func
 796              		.type	checkErrors, %function
 797              	checkErrors:
 798              	.LFB69:
 377:HallEffect.c  **** #endif
 378:HallEffect.c  **** 
 379:HallEffect.c  **** /* Check for warnings and errors in the configuration */
 380:HallEffect.c  **** void checkErrors(const float triggerHeight[ROWS][COLUMNS] 
 381:HallEffect.c  **** #ifdef RAPID_TRIGGER
ARM GAS  C:\Users\z004e6he\AppData\Local\Temp\cc9aJYfw.s 			page 22


 382:HallEffect.c  ****                 ,const float rapidDistance[ROWS][COLUMNS]
 383:HallEffect.c  **** #endif
 384:HallEffect.c  **** #ifdef CALIBRATE_SWITCHES
 385:HallEffect.c  ****                 ,const uint8 calibrationKey[2]
 386:HallEffect.c  **** #endif
 387:HallEffect.c  **** ){
 799              		.loc 1 387 0
 800              		.cfi_startproc
 801              		@ args = 0, pretend = 0, frame = 16
 802              		@ frame_needed = 0, uses_anonymous_args = 0
 803              	.LVL106:
 804 0000 2DE9F04F 		push	{r4, r5, r6, r7, r8, r9, r10, fp, lr}
 805              		.cfi_def_cfa_offset 36
 806              		.cfi_offset 4, -36
 807              		.cfi_offset 5, -32
 808              		.cfi_offset 6, -28
 809              		.cfi_offset 7, -24
 810              		.cfi_offset 8, -20
 811              		.cfi_offset 9, -16
 812              		.cfi_offset 10, -12
 813              		.cfi_offset 11, -8
 814              		.cfi_offset 14, -4
 815 0004 87B0     		sub	sp, sp, #28
 816              		.cfi_def_cfa_offset 64
 817 0006 0592     		str	r2, [sp, #20]
 818              	.LVL107:
 388:HallEffect.c  ****     uint8 row, col;
 389:HallEffect.c  ****     int8 error = FALSE;
 819              		.loc 1 389 0
 820 0008 0027     		movs	r7, #0
 390:HallEffect.c  ****     
 391:HallEffect.c  ****     //Check for configuration warnings and errors
 392:HallEffect.c  ****     for(row = 0; row < ROWS; row++){
 821              		.loc 1 392 0
 822 000a BA46     		mov	r10, r7
 823 000c 8B46     		mov	fp, r1
 824 000e 8146     		mov	r9, r0
 825 0010 B846     		mov	r8, r7
 826 0012 71E0     		b	.L48
 827              	.LVL108:
 828              	.L53:
 393:HallEffect.c  ****         for(col = 0; col < COLUMNS; col++){
 394:HallEffect.c  ****             //Warnings
 395:HallEffect.c  ****             //Convert the float to a uint16 to be able to use the modulo operator
 396:HallEffect.c  ****             //Throw a warning if the trigger height or rapid trigger distance is not set in 0.05 mm
 397:HallEffect.c  ****             #ifdef RAPID_TRIGGER
 398:HallEffect.c  ****             if((((uint16)(triggerHeight[row][col] * 100) % (uint16)(RESOLUTION * 100)) != 0)
 829              		.loc 1 398 0
 830 0014 4FEA0A15 		lsl	r5, r10, #4
 831 0018 09EB0503 		add	r3, r9, r5
 832 001c 2746     		mov	r7, r4
 833 001e 53F82460 		ldr	r6, [r3, r4, lsl #2]	@ float
 834 0022 A949     		ldr	r1, .L91+16
 835 0024 3046     		mov	r0, r6
 836 0026 FFF7FEFF 		bl	__aeabi_fmul
 837              	.LVL109:
 838 002a FFF7FEFF 		bl	__aeabi_f2uiz
ARM GAS  C:\Users\z004e6he\AppData\Local\Temp\cc9aJYfw.s 			page 23


 839              	.LVL110:
 840 002e 80B2     		uxth	r0, r0
 841 0030 A64B     		ldr	r3, .L91+20
 842 0032 A3FB0023 		umull	r2, r3, r3, r0
 843 0036 9B08     		lsrs	r3, r3, #2
 844 0038 03EB8303 		add	r3, r3, r3, lsl #2
 845 003c C31A     		subs	r3, r0, r3
 846 003e 9BB2     		uxth	r3, r3
 847 0040 9BB9     		cbnz	r3, .L78
 399:HallEffect.c  ****             || (((uint16)(rapidDistance[row][col] * 100) % (uint16)(RESOLUTION * 100)) != 0)){
 848              		.loc 1 399 0
 849 0042 0BEB0503 		add	r3, fp, r5
 850 0046 A049     		ldr	r1, .L91+16
 851 0048 53F82400 		ldr	r0, [r3, r4, lsl #2]	@ float
 852 004c FFF7FEFF 		bl	__aeabi_fmul
 853              	.LVL111:
 854 0050 FFF7FEFF 		bl	__aeabi_f2uiz
 855              	.LVL112:
 856 0054 80B2     		uxth	r0, r0
 857 0056 9D4B     		ldr	r3, .L91+20
 858 0058 A3FB0023 		umull	r2, r3, r3, r0
 859 005c 9B08     		lsrs	r3, r3, #2
 860 005e 03EB8303 		add	r3, r3, r3, lsl #2
 861 0062 C31A     		subs	r3, r0, r3
 862 0064 9BB2     		uxth	r3, r3
 863 0066 1BB9     		cbnz	r3, .L79
 864 0068 04E0     		b	.L49
 865              	.L78:
 400:HallEffect.c  ****                 error = -1;
 866              		.loc 1 400 0
 867 006a 4FF0FF38 		mov	r8, #-1
 868              	.LVL113:
 869 006e 01E0     		b	.L49
 870              	.LVL114:
 871              	.L79:
 872 0070 4FF0FF38 		mov	r8, #-1
 873              	.LVL115:
 874              	.L49:
 401:HallEffect.c  ****             }
 402:HallEffect.c  ****             #endif
 403:HallEffect.c  ****             
 404:HallEffect.c  ****             //Errors
 405:HallEffect.c  ****             //Check if the trigger height set in config.h is within spec
 406:HallEffect.c  ****             if(triggerHeight[row][col] > MAX_TRIGGER_HEIGHT){
 875              		.loc 1 406 0
 876 0074 3046     		mov	r0, r6
 877 0076 FFF7FEFF 		bl	__aeabi_f2d
 878              	.LVL116:
 879 007a CDE90201 		strd	r0, [sp, #8]
 880 007e 8EA3     		adr	r3, .L91
 881 0080 D3E90023 		ldrd	r2, [r3]
 882 0084 FFF7FEFF 		bl	__aeabi_dcmpgt
 883              	.LVL117:
 884 0088 20BB     		cbnz	r0, .L80
 407:HallEffect.c  ****                 error = 1;
 408:HallEffect.c  ****                 break;
 409:HallEffect.c  ****             }else if(triggerHeight[row][col] < MIN_TRIGGER_HEIGHT && triggerHeight[row][col] != 0){
ARM GAS  C:\Users\z004e6he\AppData\Local\Temp\cc9aJYfw.s 			page 24


 885              		.loc 1 409 0
 886 008a 8DA3     		adr	r3, .L91+8
 887 008c D3E90023 		ldrd	r2, [r3]
 888 0090 DDE90201 		ldrd	r0, [sp, #8]
 889 0094 FFF7FEFF 		bl	__aeabi_dcmplt
 890              	.LVL118:
 891 0098 20B1     		cbz	r0, .L51
 892              		.loc 1 409 0 is_stmt 0 discriminator 1
 893 009a 0021     		movs	r1, #0
 894 009c 3046     		mov	r0, r6
 895 009e FFF7FEFF 		bl	__aeabi_fcmpeq
 896              	.LVL119:
 897 00a2 D0B1     		cbz	r0, .L81
 898              	.L51:
 410:HallEffect.c  ****                 //Trigger height of 0 is allowed to disable the switch
 411:HallEffect.c  ****                 error = 2;
 412:HallEffect.c  ****                 break;
 413:HallEffect.c  ****             }
 414:HallEffect.c  ****             #ifdef RAPID_TRIGGER
 415:HallEffect.c  ****             //Check if the rapid trigger distance is within spec
 416:HallEffect.c  ****             else if(rapidDistance[row][col] > MAX_RAPID_TRIGGER_DISTANCE){
 899              		.loc 1 416 0 is_stmt 1
 900 00a4 5D44     		add	r5, r5, fp
 901 00a6 55F82750 		ldr	r5, [r5, r7, lsl #2]	@ float
 902 00aa 8949     		ldr	r1, .L91+24
 903 00ac 2846     		mov	r0, r5
 904 00ae FFF7FEFF 		bl	__aeabi_fcmpgt
 905              	.LVL120:
 906 00b2 A8B9     		cbnz	r0, .L82
 417:HallEffect.c  ****                 error = 3;
 418:HallEffect.c  ****                 break;
 419:HallEffect.c  ****             }else if(rapidDistance[row][col] < MIN_RAPID_TRIGGER_DISTANCE){
 907              		.loc 1 419 0
 908 00b4 2846     		mov	r0, r5
 909 00b6 FFF7FEFF 		bl	__aeabi_f2d
 910              	.LVL121:
 911 00ba 81A3     		adr	r3, .L91+8
 912 00bc D3E90023 		ldrd	r2, [r3]
 913 00c0 FFF7FEFF 		bl	__aeabi_dcmplt
 914              	.LVL122:
 915 00c4 78B9     		cbnz	r0, .L83
 393:HallEffect.c  ****             //Warnings
 916              		.loc 1 393 0 discriminator 2
 917 00c6 0134     		adds	r4, r4, #1
 918              	.LVL123:
 919 00c8 E4B2     		uxtb	r4, r4
 920              	.LVL124:
 921 00ca 00E0     		b	.L55
 922              	.L84:
 923 00cc 0024     		movs	r4, #0
 924              	.LVL125:
 925              	.L55:
 393:HallEffect.c  ****             //Warnings
 926              		.loc 1 393 0 is_stmt 0 discriminator 1
 927 00ce 032C     		cmp	r4, #3
 928 00d0 A0D9     		bls	.L53
 929 00d2 0AE0     		b	.L50
ARM GAS  C:\Users\z004e6he\AppData\Local\Temp\cc9aJYfw.s 			page 25


 930              	.L80:
 407:HallEffect.c  ****                 break;
 931              		.loc 1 407 0 is_stmt 1
 932 00d4 4FF00108 		mov	r8, #1
 933              	.LVL126:
 934 00d8 07E0     		b	.L50
 935              	.LVL127:
 936              	.L81:
 411:HallEffect.c  ****                 break;
 937              		.loc 1 411 0
 938 00da 4FF00208 		mov	r8, #2
 939              	.LVL128:
 940 00de 04E0     		b	.L50
 941              	.LVL129:
 942              	.L82:
 417:HallEffect.c  ****                 break;
 943              		.loc 1 417 0
 944 00e0 4FF00308 		mov	r8, #3
 945              	.LVL130:
 946 00e4 01E0     		b	.L50
 947              	.LVL131:
 948              	.L83:
 420:HallEffect.c  ****                 error = 4;
 949              		.loc 1 420 0
 950 00e6 4FF00408 		mov	r8, #4
 951              	.LVL132:
 952              	.L50:
 421:HallEffect.c  ****                 break;
 422:HallEffect.c  ****             }
 423:HallEffect.c  ****             #endif
 424:HallEffect.c  ****         }
 425:HallEffect.c  ****         //Break out of the loop if an error has been detected
 426:HallEffect.c  ****         if(error > 0){
 953              		.loc 1 426 0
 954 00ea B8F1000F 		cmp	r8, #0
 955 00ee 06DC     		bgt	.L54
 392:HallEffect.c  ****         for(col = 0; col < COLUMNS; col++){
 956              		.loc 1 392 0 discriminator 2
 957 00f0 0AF1010A 		add	r10, r10, #1
 958              	.LVL133:
 959 00f4 5FFA8AFA 		uxtb	r10, r10
 960              	.LVL134:
 961              	.L48:
 392:HallEffect.c  ****         for(col = 0; col < COLUMNS; col++){
 962              		.loc 1 392 0 is_stmt 0 discriminator 1
 963 00f8 BAF1030F 		cmp	r10, #3
 964 00fc E6D9     		bls	.L84
 965              	.L54:
 966 00fe 4746     		mov	r7, r8
 967              	.LVL135:
 427:HallEffect.c  ****             break;
 428:HallEffect.c  ****         }
 429:HallEffect.c  ****     }
 430:HallEffect.c  ****     
 431:HallEffect.c  ****     #ifdef CALIBRATE_SWITCHES
 432:HallEffect.c  ****     //Check if the calibration key is part of the switch matrix, matrix is 0-indexed
 433:HallEffect.c  ****     if(calibrationKey[ROW_INDEX] > (ROWS - 1)){
ARM GAS  C:\Users\z004e6he\AppData\Local\Temp\cc9aJYfw.s 			page 26


 968              		.loc 1 433 0 is_stmt 1
 969 0100 059A     		ldr	r2, [sp, #20]
 970 0102 1378     		ldrb	r3, [r2]	@ zero_extendqisi2
 971 0104 032B     		cmp	r3, #3
 972 0106 0BD8     		bhi	.L85
 434:HallEffect.c  ****         error = 5;
 435:HallEffect.c  ****     }else if(calibrationKey[ROW_INDEX] < 0){
 436:HallEffect.c  ****         error = 6;
 437:HallEffect.c  ****     }else if(calibrationKey[COLUMN_INDEX] > (COLUMNS - 1)){
 973              		.loc 1 437 0
 974 0108 5278     		ldrb	r2, [r2, #1]	@ zero_extendqisi2
 975 010a 032A     		cmp	r2, #3
 976 010c 0AD8     		bhi	.L86
 438:HallEffect.c  ****         error = 7;
 439:HallEffect.c  ****     }else if(calibrationKey[COLUMN_INDEX] < 0){
 440:HallEffect.c  ****         error = 8;
 441:HallEffect.c  ****         
 442:HallEffect.c  ****     //Check if calibration key is disabled
 443:HallEffect.c  ****     }else if(triggerHeight[calibrationKey[ROW_INDEX]][calibrationKey[COLUMN_INDEX]] == 0){
 977              		.loc 1 443 0
 978 010e 09EB0313 		add	r3, r9, r3, lsl #4
 979 0112 0021     		movs	r1, #0
 980 0114 53F82200 		ldr	r0, [r3, r2, lsl #2]	@ float
 981 0118 FFF7FEFF 		bl	__aeabi_fcmpeq
 982              	.LVL136:
 983 011c 20B9     		cbnz	r0, .L87
 984 011e 04E0     		b	.L56
 985              	.L85:
 434:HallEffect.c  ****         error = 5;
 986              		.loc 1 434 0
 987 0120 0527     		movs	r7, #5
 988              	.LVL137:
 989 0122 02E0     		b	.L56
 990              	.LVL138:
 991              	.L86:
 438:HallEffect.c  ****         error = 7;
 992              		.loc 1 438 0
 993 0124 0727     		movs	r7, #7
 994              	.LVL139:
 995 0126 00E0     		b	.L56
 996              	.LVL140:
 997              	.L87:
 444:HallEffect.c  ****         error = 9;
 998              		.loc 1 444 0
 999 0128 0927     		movs	r7, #9
 1000              	.LVL141:
 1001              	.L56:
 445:HallEffect.c  ****     //Check if EEPROM is large enough, each switch needs 4 bytes of memory for calibration data
 446:HallEffect.c  ****     //Assumes that each possible switch position is used
 447:HallEffect.c  ****     }else if(CYDEV_EE_SIZE < ROWS*COLUMNS*SWITCH_DATA_SIZE){
 448:HallEffect.c  ****         error = 10;
 449:HallEffect.c  ****     }
 450:HallEffect.c  ****     #endif
 451:HallEffect.c  ****     
 452:HallEffect.c  ****     if(error != 0){
 1002              		.loc 1 452 0
 1003 012a 002F     		cmp	r7, #0
ARM GAS  C:\Users\z004e6he\AppData\Local\Temp\cc9aJYfw.s 			page 27


 1004 012c 40F0BE80 		bne	.L57
 1005              	.LBB4:
 1006 0130 BFE0     		b	.L47
 1007              	.LVL142:
 1008              	.L77:
 453:HallEffect.c  ****         //Convert defined constants to variables to use them in strings
 454:HallEffect.c  ****         //Hacky way to get floats to work with sprintf without increasing heap size and including a
 455:HallEffect.c  ****         const uint8 maxHeight = MAX_TRIGGER_HEIGHT * HEIGHT_FACTOR;
 456:HallEffect.c  ****         const uint8 minHeight = MIN_TRIGGER_HEIGHT * HEIGHT_FACTOR;
 457:HallEffect.c  ****         const uint8 maxDistance = MAX_RAPID_TRIGGER_DISTANCE * HEIGHT_FACTOR;
 458:HallEffect.c  ****         const uint8 minDistance = MIN_RAPID_TRIGGER_DISTANCE * HEIGHT_FACTOR;
 459:HallEffect.c  ****         const uint8 maxCalibrationKeyRow = ROWS - 1;
 460:HallEffect.c  ****         const uint8 maxCalibrationKeyCol = COLUMNS - 1;
 461:HallEffect.c  ****         const uint8 resolution = RESOLUTION * RESOLUTION_FACTOR;
 462:HallEffect.c  ****         //Don't allow the program to continue in case of error
 463:HallEffect.c  ****         while(error != 0){
 464:HallEffect.c  ****             switch(error){
 1009              		.loc 1 464 0
 1010 0132 7B1C     		adds	r3, r7, #1
 1011 0134 0B2B     		cmp	r3, #11
 1012 0136 7FD8     		bhi	.L59
 1013 0138 DFE803F0 		tbb	[pc, r3]
 1014              	.L61:
 1015 013c 06       		.byte	(.L60-.L61)/2
 1016 013d 7E       		.byte	(.L59-.L61)/2
 1017 013e 0E       		.byte	(.L62-.L61)/2
 1018 013f 19       		.byte	(.L63-.L61)/2
 1019 0140 23       		.byte	(.L64-.L61)/2
 1020 0141 2A       		.byte	(.L65-.L61)/2
 1021 0142 31       		.byte	(.L66-.L61)/2
 1022 0143 37       		.byte	(.L67-.L61)/2
 1023 0144 4B       		.byte	(.L68-.L61)/2
 1024 0145 51       		.byte	(.L69-.L61)/2
 1025 0146 65       		.byte	(.L70-.L61)/2
 1026 0147 79       		.byte	(.L71-.L61)/2
 1027              		.p2align 1
 1028              	.L60:
 465:HallEffect.c  ****                 case -1: //Step size is less than the RESOLUTION defined in config.h
 466:HallEffect.c  ****                 sprintf(Transmitbuffer, "Warning: Steps less than %u.%u mm are experimental and mig
 1029              		.loc 1 466 0
 1030 0148 0523     		movs	r3, #5
 1031 014a 0022     		movs	r2, #0
 1032 014c 6149     		ldr	r1, .L91+28
 1033 014e 6248     		ldr	r0, .L91+32
 1034 0150 FFF7FEFF 		bl	sprintf
 1035              	.LVL143:
 467:HallEffect.c  ****                         resolution / RESOLUTION_FACTOR, resolution % RESOLUTION_FACTOR);
 468:HallEffect.c  ****                 //Reset warning to allow program to continue
 469:HallEffect.c  ****                 error = 0;
 1036              		.loc 1 469 0
 1037 0154 0027     		movs	r7, #0
 470:HallEffect.c  ****                 break;
 1038              		.loc 1 470 0
 1039 0156 6FE0     		b	.L59
 1040              	.LVL144:
 1041              	.L62:
 471:HallEffect.c  ****                 
ARM GAS  C:\Users\z004e6he\AppData\Local\Temp\cc9aJYfw.s 			page 28


 472:HallEffect.c  ****                 case 1: //Trigger height is too high
 473:HallEffect.c  ****                 sprintf(Transmitbuffer, "Error: Trigger height set for switch [%u/%u] is too high!\
 1042              		.loc 1 473 0
 1043 0158 0823     		movs	r3, #8
 1044 015a 0193     		str	r3, [sp, #4]
 1045 015c 0323     		movs	r3, #3
 1046 015e 0093     		str	r3, [sp]
 1047 0160 2346     		mov	r3, r4
 1048 0162 5246     		mov	r2, r10
 1049 0164 5D49     		ldr	r1, .L91+36
 1050 0166 5C48     		ldr	r0, .L91+32
 1051 0168 FFF7FEFF 		bl	sprintf
 1052              	.LVL145:
 474:HallEffect.c  ****                         row, col, maxHeight / HEIGHT_FACTOR, maxHeight % HEIGHT_FACTOR);   
 475:HallEffect.c  ****                 break;
 1053              		.loc 1 475 0
 1054 016c 64E0     		b	.L59
 1055              	.L63:
 476:HallEffect.c  ****                 
 477:HallEffect.c  ****                 case 2: //Trigger height is too low
 478:HallEffect.c  ****                 sprintf(Transmitbuffer, "Error: Trigger heightset for switch [%u/%u] is too low!\r\
 1056              		.loc 1 478 0
 1057 016e 0023     		movs	r3, #0
 1058 0170 0193     		str	r3, [sp, #4]
 1059 0172 0093     		str	r3, [sp]
 1060 0174 2346     		mov	r3, r4
 1061 0176 5246     		mov	r2, r10
 1062 0178 5949     		ldr	r1, .L91+40
 1063 017a 5748     		ldr	r0, .L91+32
 1064 017c FFF7FEFF 		bl	sprintf
 1065              	.LVL146:
 479:HallEffect.c  ****                         row, col, minHeight / HEIGHT_FACTOR, minHeight % HEIGHT_FACTOR);    
 480:HallEffect.c  ****                 break;
 1066              		.loc 1 480 0
 1067 0180 5AE0     		b	.L59
 1068              	.L64:
 481:HallEffect.c  ****                 
 482:HallEffect.c  ****                 #ifdef RAPID_TRIGGER
 483:HallEffect.c  ****                 case 3: //Rapid trigger distance is too high
 484:HallEffect.c  ****                 sprintf(Transmitbuffer, "Error: Rapid trigger distance is too high!\r\nThe maximum 
 1069              		.loc 1 484 0
 1070 0182 0323     		movs	r3, #3
 1071 0184 0022     		movs	r2, #0
 1072 0186 5749     		ldr	r1, .L91+44
 1073 0188 5348     		ldr	r0, .L91+32
 1074 018a FFF7FEFF 		bl	sprintf
 1075              	.LVL147:
 485:HallEffect.c  ****                         maxDistance / HEIGHT_FACTOR, maxDistance % HEIGHT_FACTOR);    
 486:HallEffect.c  ****                 break;
 1076              		.loc 1 486 0
 1077 018e 53E0     		b	.L59
 1078              	.L65:
 487:HallEffect.c  ****                 
 488:HallEffect.c  ****                 case 4: //Rapid trigger distance is too low
 489:HallEffect.c  ****                 sprintf(Transmitbuffer, "Error: Rapid trigger distance is too low!\r\nThe minimum d
 1079              		.loc 1 489 0
 1080 0190 0023     		movs	r3, #0
ARM GAS  C:\Users\z004e6he\AppData\Local\Temp\cc9aJYfw.s 			page 29


 1081 0192 1A46     		mov	r2, r3
 1082 0194 5449     		ldr	r1, .L91+48
 1083 0196 5048     		ldr	r0, .L91+32
 1084 0198 FFF7FEFF 		bl	sprintf
 1085              	.LVL148:
 490:HallEffect.c  ****                         minDistance / HEIGHT_FACTOR, minDistance % HEIGHT_FACTOR);
 491:HallEffect.c  ****                 break;
 1086              		.loc 1 491 0
 1087 019c 4CE0     		b	.L59
 1088              	.L66:
 492:HallEffect.c  ****                 #endif
 493:HallEffect.c  ****                 
 494:HallEffect.c  ****                 #ifdef CALIBRATE_SWITCHES
 495:HallEffect.c  ****                 case 5: //CALIBRATION_KEY row is higher than ROWS
 496:HallEffect.c  ****                 sprintf(Transmitbuffer, "Error: Calibration key row is too high!\r\nThe largest num
 1089              		.loc 1 496 0
 1090 019e 0322     		movs	r2, #3
 1091 01a0 5249     		ldr	r1, .L91+52
 1092 01a2 4D48     		ldr	r0, .L91+32
 1093 01a4 FFF7FEFF 		bl	sprintf
 1094              	.LVL149:
 497:HallEffect.c  ****                         maxCalibrationKeyRow);
 498:HallEffect.c  ****                 break;
 1095              		.loc 1 498 0
 1096 01a8 46E0     		b	.L59
 1097              	.L67:
 499:HallEffect.c  ****                 
 500:HallEffect.c  ****                 case 6: //CALIBRATION_KEY row is less than 0
 501:HallEffect.c  ****                 sprintf(Transmitbuffer, "Error: Calibration key row can't be less than 0!\r\n");
 1098              		.loc 1 501 0
 1099 01aa DFF850E1 		ldr	lr, .L91+68
 1100 01ae 4A4D     		ldr	r5, .L91+32
 1101 01b0 0EF1300C 		add	ip, lr, #48
 1102              	.L72:
 1103 01b4 7646     		mov	r6, lr
 1104 01b6 0FCE     		ldmia	r6!, {r0, r1, r2, r3}
 1105 01b8 2860     		str	r0, [r5]	@ unaligned
 1106 01ba 6960     		str	r1, [r5, #4]	@ unaligned
 1107 01bc AA60     		str	r2, [r5, #8]	@ unaligned
 1108 01be EB60     		str	r3, [r5, #12]	@ unaligned
 1109 01c0 B646     		mov	lr, r6
 1110 01c2 1035     		adds	r5, r5, #16
 1111 01c4 6645     		cmp	r6, ip
 1112 01c6 F5D1     		bne	.L72
 1113 01c8 3288     		ldrh	r2, [r6]	@ unaligned
 1114 01ca B378     		ldrb	r3, [r6, #2]	@ zero_extendqisi2
 1115 01cc 2A80     		strh	r2, [r5]	@ unaligned
 1116 01ce AB70     		strb	r3, [r5, #2]
 502:HallEffect.c  ****                 break;
 1117              		.loc 1 502 0
 1118 01d0 32E0     		b	.L59
 1119              	.L68:
 503:HallEffect.c  ****                 
 504:HallEffect.c  ****                 case 7: //CALIBRATION_KEY column is higher COLUMNS
 505:HallEffect.c  ****                 sprintf(Transmitbuffer, "Error: Calibration key column is too high!\r\nThe largest 
 1120              		.loc 1 505 0
 1121 01d2 0322     		movs	r2, #3
ARM GAS  C:\Users\z004e6he\AppData\Local\Temp\cc9aJYfw.s 			page 30


 1122 01d4 4649     		ldr	r1, .L91+56
 1123 01d6 4048     		ldr	r0, .L91+32
 1124 01d8 FFF7FEFF 		bl	sprintf
 1125              	.LVL150:
 506:HallEffect.c  ****                         maxCalibrationKeyCol);
 507:HallEffect.c  ****                 break;
 1126              		.loc 1 507 0
 1127 01dc 2CE0     		b	.L59
 1128              	.L69:
 508:HallEffect.c  ****                 
 509:HallEffect.c  ****                 case 8: //CALIBRATION_KEY column is less than 0
 510:HallEffect.c  ****                 sprintf(Transmitbuffer, "Error: Calibration key column can't be less than 0!\r\n");
 1129              		.loc 1 510 0
 1130 01de DFF820E1 		ldr	lr, .L91+72
 1131 01e2 3D4D     		ldr	r5, .L91+32
 1132 01e4 0EF1300C 		add	ip, lr, #48
 1133              	.L73:
 1134 01e8 7646     		mov	r6, lr
 1135 01ea 0FCE     		ldmia	r6!, {r0, r1, r2, r3}
 1136 01ec 2860     		str	r0, [r5]	@ unaligned
 1137 01ee 6960     		str	r1, [r5, #4]	@ unaligned
 1138 01f0 AA60     		str	r2, [r5, #8]	@ unaligned
 1139 01f2 EB60     		str	r3, [r5, #12]	@ unaligned
 1140 01f4 B646     		mov	lr, r6
 1141 01f6 1035     		adds	r5, r5, #16
 1142 01f8 6645     		cmp	r6, ip
 1143 01fa F5D1     		bne	.L73
 1144 01fc 3068     		ldr	r0, [r6]	@ unaligned
 1145 01fe 2860     		str	r0, [r5]	@ unaligned
 1146 0200 B388     		ldrh	r3, [r6, #4]	@ unaligned
 1147 0202 AB80     		strh	r3, [r5, #4]	@ unaligned
 511:HallEffect.c  ****                 break;
 1148              		.loc 1 511 0
 1149 0204 18E0     		b	.L59
 1150              	.L70:
 512:HallEffect.c  ****                 
 513:HallEffect.c  ****                 case 9: //CALIBRATION_KEY is disabled
 514:HallEffect.c  ****                 sprintf(Transmitbuffer, "Error: The calibration key must not be disabled!\r\n");
 1151              		.loc 1 514 0
 1152 0206 DFF8FCE0 		ldr	lr, .L91+76
 1153 020a 334D     		ldr	r5, .L91+32
 1154 020c 0EF1300C 		add	ip, lr, #48
 1155              	.L74:
 1156 0210 7646     		mov	r6, lr
 1157 0212 0FCE     		ldmia	r6!, {r0, r1, r2, r3}
 1158 0214 2860     		str	r0, [r5]	@ unaligned
 1159 0216 6960     		str	r1, [r5, #4]	@ unaligned
 1160 0218 AA60     		str	r2, [r5, #8]	@ unaligned
 1161 021a EB60     		str	r3, [r5, #12]	@ unaligned
 1162 021c B646     		mov	lr, r6
 1163 021e 1035     		adds	r5, r5, #16
 1164 0220 6645     		cmp	r6, ip
 1165 0222 F5D1     		bne	.L74
 1166 0224 3288     		ldrh	r2, [r6]	@ unaligned
 1167 0226 B378     		ldrb	r3, [r6, #2]	@ zero_extendqisi2
 1168 0228 2A80     		strh	r2, [r5]	@ unaligned
 1169 022a AB70     		strb	r3, [r5, #2]
ARM GAS  C:\Users\z004e6he\AppData\Local\Temp\cc9aJYfw.s 			page 31


 515:HallEffect.c  ****                 break;
 1170              		.loc 1 515 0
 1171 022c 04E0     		b	.L59
 1172              	.L71:
 516:HallEffect.c  ****                 
 517:HallEffect.c  ****                 case 10: //EEPROM not large enough to save all key data
 518:HallEffect.c  ****                 sprintf(Transmitbuffer, "Error: The EEPROM is not large enough to save the data of 
 1173              		.loc 1 518 0
 1174 022e 7922     		movs	r2, #121
 1175 0230 3049     		ldr	r1, .L91+60
 1176 0232 2948     		ldr	r0, .L91+32
 1177 0234 FFF7FEFF 		bl	memcpy
 1178              	.LVL151:
 1179              	.L59:
 519:HallEffect.c  ****                 break;
 520:HallEffect.c  ****                 #endif
 521:HallEffect.c  ****             }
 522:HallEffect.c  ****             //Output over UART
 523:HallEffect.c  ****             UART_PutString(Transmitbuffer);
 1180              		.loc 1 523 0
 1181 0238 274D     		ldr	r5, .L91+32
 1182 023a 2846     		mov	r0, r5
 1183 023c FFF7FEFF 		bl	UART_PutString
 1184              	.LVL152:
 524:HallEffect.c  ****             //Output to the display
 525:HallEffect.c  ****             display_clear();
 1185              		.loc 1 525 0
 1186 0240 FFF7FEFF 		bl	display_clear
 1187              	.LVL153:
 526:HallEffect.c  ****             display_update();
 1188              		.loc 1 526 0
 1189 0244 FFF7FEFF 		bl	display_update
 1190              	.LVL154:
 527:HallEffect.c  ****             gfx_setCursor(0,DISPLAY_OFFSET);
 1191              		.loc 1 527 0
 1192 0248 2821     		movs	r1, #40
 1193 024a 0020     		movs	r0, #0
 1194 024c FFF7FEFF 		bl	gfx_setCursor
 1195              	.LVL155:
 528:HallEffect.c  ****             gfx_setTextSize(1);
 1196              		.loc 1 528 0
 1197 0250 0120     		movs	r0, #1
 1198 0252 FFF7FEFF 		bl	gfx_setTextSize
 1199              	.LVL156:
 529:HallEffect.c  ****             gfx_println(Transmitbuffer);
 1200              		.loc 1 529 0
 1201 0256 2846     		mov	r0, r5
 1202 0258 FFF7FEFF 		bl	gfx_println
 1203              	.LVL157:
 530:HallEffect.c  ****             display_update();
 1204              		.loc 1 530 0
 1205 025c FFF7FEFF 		bl	display_update
 1206              	.LVL158:
 531:HallEffect.c  ****             CyDelay(ERROR_WAIT_TIME / 2);
 1207              		.loc 1 531 0
 1208 0260 40F6C410 		movw	r0, #2500
 1209 0264 FFF7FEFF 		bl	CyDelay
ARM GAS  C:\Users\z004e6he\AppData\Local\Temp\cc9aJYfw.s 			page 32


 1210              	.LVL159:
 532:HallEffect.c  ****             
 533:HallEffect.c  ****             if(error){
 1211              		.loc 1 533 0
 1212 0268 E7B1     		cbz	r7, .L75
 534:HallEffect.c  ****                 sprintf(Transmitbuffer, "Change the appropriate setting in config.h and flash the f
 1213              		.loc 1 534 0
 1214 026a 4B22     		movs	r2, #75
 1215 026c 2249     		ldr	r1, .L91+64
 1216 026e 2846     		mov	r0, r5
 1217 0270 FFF7FEFF 		bl	memcpy
 1218              	.LVL160:
 535:HallEffect.c  ****                 //Output over UART
 536:HallEffect.c  ****                 UART_PutString(Transmitbuffer);
 1219              		.loc 1 536 0
 1220 0274 2846     		mov	r0, r5
 1221 0276 FFF7FEFF 		bl	UART_PutString
 1222              	.LVL161:
 537:HallEffect.c  ****                 //Output to the display
 538:HallEffect.c  ****                 display_clear();
 1223              		.loc 1 538 0
 1224 027a FFF7FEFF 		bl	display_clear
 1225              	.LVL162:
 539:HallEffect.c  ****                 display_update();
 1226              		.loc 1 539 0
 1227 027e FFF7FEFF 		bl	display_update
 1228              	.LVL163:
 540:HallEffect.c  ****                 gfx_setCursor(0,DISPLAY_OFFSET);
 1229              		.loc 1 540 0
 1230 0282 2821     		movs	r1, #40
 1231 0284 0020     		movs	r0, #0
 1232 0286 FFF7FEFF 		bl	gfx_setCursor
 1233              	.LVL164:
 541:HallEffect.c  ****                 gfx_setTextSize(1);
 1234              		.loc 1 541 0
 1235 028a 0120     		movs	r0, #1
 1236 028c FFF7FEFF 		bl	gfx_setTextSize
 1237              	.LVL165:
 542:HallEffect.c  ****                 gfx_println(Transmitbuffer);
 1238              		.loc 1 542 0
 1239 0290 2846     		mov	r0, r5
 1240 0292 FFF7FEFF 		bl	gfx_println
 1241              	.LVL166:
 543:HallEffect.c  ****                 display_update();
 1242              		.loc 1 543 0
 1243 0296 FFF7FEFF 		bl	display_update
 1244              	.LVL167:
 544:HallEffect.c  ****                 //Do nothing, message repeats every 5 seconds by default
 545:HallEffect.c  ****                 CyDelay(ERROR_WAIT_TIME / 2);
 1245              		.loc 1 545 0
 1246 029a 40F6C410 		movw	r0, #2500
 1247 029e FFF7FEFF 		bl	CyDelay
 1248              	.LVL168:
 1249 02a2 03E0     		b	.L57
 1250              	.L75:
 546:HallEffect.c  ****             }else{
 547:HallEffect.c  ****                 //Shorter wait time for warnings since program continues afterwards
ARM GAS  C:\Users\z004e6he\AppData\Local\Temp\cc9aJYfw.s 			page 33


 548:HallEffect.c  ****                 CyDelay(ERROR_WAIT_TIME / 5);
 1251              		.loc 1 548 0
 1252 02a4 4FF47A70 		mov	r0, #1000
 1253 02a8 FFF7FEFF 		bl	CyDelay
 1254              	.LVL169:
 1255              	.L57:
 463:HallEffect.c  ****             switch(error){
 1256              		.loc 1 463 0
 1257 02ac 002F     		cmp	r7, #0
 1258 02ae 7FF440AF 		bne	.L77
 1259              	.L47:
 1260              	.LBE4:
 549:HallEffect.c  ****             }
 550:HallEffect.c  ****         }
 551:HallEffect.c  ****     }
 552:HallEffect.c  **** }
 1261              		.loc 1 552 0
 1262 02b2 07B0     		add	sp, sp, #28
 1263              		.cfi_def_cfa_offset 36
 1264              		@ sp needed
 1265 02b4 BDE8F08F 		pop	{r4, r5, r6, r7, r8, r9, r10, fp, pc}
 1266              	.LVL170:
 1267              	.L92:
 1268              		.align	3
 1269              	.L91:
 1270 02b8 66666666 		.word	1717986918
 1271 02bc 66660E40 		.word	1074685542
 1272 02c0 9A999999 		.word	-1717986918
 1273 02c4 9999A93F 		.word	1068079513
 1274 02c8 0000C842 		.word	1120403456
 1275 02cc CDCCCCCC 		.word	-858993459
 1276 02d0 00007040 		.word	1081081856
 1277 02d4 84000000 		.word	.LC6
 1278 02d8 00000000 		.word	Transmitbuffer
 1279 02dc D4000000 		.word	.LC7
 1280 02e0 3C010000 		.word	.LC8
 1281 02e4 A0010000 		.word	.LC9
 1282 02e8 F8010000 		.word	.LC10
 1283 02ec 50020000 		.word	.LC11
 1284 02f0 D4020000 		.word	.LC13
 1285 02f4 90030000 		.word	.LC16
 1286 02f8 0C040000 		.word	.LC17
 1287 02fc A0020000 		.word	.LC12
 1288 0300 24030000 		.word	.LC14
 1289 0304 5C030000 		.word	.LC15
 1290              		.cfi_endproc
 1291              	.LFE69:
 1292              		.size	checkErrors, .-checkErrors
 1293              		.section	.text.keyboardInit,"ax",%progbits
 1294              		.align	2
 1295              		.global	keyboardInit
 1296              		.thumb
 1297              		.thumb_func
 1298              		.type	keyboardInit, %function
 1299              	keyboardInit:
 1300              	.LFB64:
  32:HallEffect.c  ****     //Put the configured trigger heights into an array for indexing
ARM GAS  C:\Users\z004e6he\AppData\Local\Temp\cc9aJYfw.s 			page 34


 1301              		.loc 1 32 0
 1302              		.cfi_startproc
 1303              		@ args = 0, pretend = 0, frame = 152
 1304              		@ frame_needed = 0, uses_anonymous_args = 0
 1305 0000 2DE9F04F 		push	{r4, r5, r6, r7, r8, r9, r10, fp, lr}
 1306              		.cfi_def_cfa_offset 36
 1307              		.cfi_offset 4, -36
 1308              		.cfi_offset 5, -32
 1309              		.cfi_offset 6, -28
 1310              		.cfi_offset 7, -24
 1311              		.cfi_offset 8, -20
 1312              		.cfi_offset 9, -16
 1313              		.cfi_offset 10, -12
 1314              		.cfi_offset 11, -8
 1315              		.cfi_offset 14, -4
 1316 0004 A7B0     		sub	sp, sp, #156
 1317              		.cfi_def_cfa_offset 192
  34:HallEffect.c  ****     
 1318              		.loc 1 34 0
 1319 0006 A84C     		ldr	r4, .L118
 1320 0008 16AD     		add	r5, sp, #88
 1321 000a 2646     		mov	r6, r4
 1322 000c 0FCE     		ldmia	r6!, {r0, r1, r2, r3}
 1323 000e 0FC5     		stmia	r5!, {r0, r1, r2, r3}
 1324 0010 0FCE     		ldmia	r6!, {r0, r1, r2, r3}
 1325 0012 0FC5     		stmia	r5!, {r0, r1, r2, r3}
 1326 0014 0FCE     		ldmia	r6!, {r0, r1, r2, r3}
 1327 0016 0FC5     		stmia	r5!, {r0, r1, r2, r3}
 1328 0018 96E80F00 		ldmia	r6, {r0, r1, r2, r3}
 1329 001c 85E80F00 		stmia	r5, {r0, r1, r2, r3}
  38:HallEffect.c  ****     #endif
 1330              		.loc 1 38 0
 1331 0020 06AD     		add	r5, sp, #24
 1332 0022 4034     		adds	r4, r4, #64
 1333 0024 0FCC     		ldmia	r4!, {r0, r1, r2, r3}
 1334 0026 0FC5     		stmia	r5!, {r0, r1, r2, r3}
 1335 0028 0FCC     		ldmia	r4!, {r0, r1, r2, r3}
 1336 002a 0FC5     		stmia	r5!, {r0, r1, r2, r3}
 1337 002c 0FCC     		ldmia	r4!, {r0, r1, r2, r3}
 1338 002e 0FC5     		stmia	r5!, {r0, r1, r2, r3}
 1339 0030 94E80F00 		ldmia	r4, {r0, r1, r2, r3}
 1340 0034 85E80F00 		stmia	r5, {r0, r1, r2, r3}
 1341              	.LVL171:
  44:HallEffect.c  ****                                      (CALIBRATION_KEY[COLUMN_INDEX] - ASCII_OFFSET)};
 1342              		.loc 1 44 0
 1343 0038 0323     		movs	r3, #3
 1344 003a 8DF81430 		strb	r3, [sp, #20]
 1345 003e 8DF81530 		strb	r3, [sp, #21]
  53:HallEffect.c  ****     #ifdef RAPID_TRIGGER
 1346              		.loc 1 53 0
 1347 0042 05AA     		add	r2, sp, #20
 1348 0044 06A9     		add	r1, sp, #24
 1349 0046 16A8     		add	r0, sp, #88
 1350 0048 FFF7FEFF 		bl	checkErrors
 1351              	.LVL172:
  64:HallEffect.c  ****         calibrateSwitches();
 1352              		.loc 1 64 0
ARM GAS  C:\Users\z004e6he\AppData\Local\Temp\cc9aJYfw.s 			page 35


 1353 004c 0020     		movs	r0, #0
 1354 004e FFF7FEFF 		bl	EEPROM_ReadByte
 1355              	.LVL173:
 1356 0052 18B9     		cbnz	r0, .L94
  65:HallEffect.c  ****         calibrationDoneThisInit = TRUE;
 1357              		.loc 1 65 0
 1358 0054 FFF7FEFF 		bl	calibrateSwitches
 1359              	.LVL174:
  66:HallEffect.c  ****     }else{
 1360              		.loc 1 66 0
 1361 0058 0124     		movs	r4, #1
 1362 005a 6AE0     		b	.L95
 1363              	.LVL175:
 1364              	.L94:
 1365              	.LBB5:
  69:HallEffect.c  ****                 calibrationKey[ROW_INDEX], calibrationKey[COLUMN_INDEX]);
 1366              		.loc 1 69 0
 1367 005c 934C     		ldr	r4, .L118+4
 1368 005e 9DF81530 		ldrb	r3, [sp, #21]	@ zero_extendqisi2
 1369 0062 9DF81420 		ldrb	r2, [sp, #20]	@ zero_extendqisi2
 1370 0066 9249     		ldr	r1, .L118+8
 1371 0068 2046     		mov	r0, r4
 1372 006a FFF7FEFF 		bl	sprintf
 1373              	.LVL176:
  72:HallEffect.c  ****         //Output to the display
 1374              		.loc 1 72 0
 1375 006e 2046     		mov	r0, r4
 1376 0070 FFF7FEFF 		bl	UART_PutString
 1377              	.LVL177:
  74:HallEffect.c  ****         display_update();
 1378              		.loc 1 74 0
 1379 0074 FFF7FEFF 		bl	display_clear
 1380              	.LVL178:
  75:HallEffect.c  ****         //Set cursor to readable position - for the first ~40 lines only every second one works
 1381              		.loc 1 75 0
 1382 0078 FFF7FEFF 		bl	display_update
 1383              	.LVL179:
  78:HallEffect.c  ****         gfx_setTextSize(1);
 1384              		.loc 1 78 0
 1385 007c 2821     		movs	r1, #40
 1386 007e 0020     		movs	r0, #0
 1387 0080 FFF7FEFF 		bl	gfx_setCursor
 1388              	.LVL180:
  79:HallEffect.c  ****         gfx_println(Transmitbuffer);
 1389              		.loc 1 79 0
 1390 0084 0120     		movs	r0, #1
 1391 0086 FFF7FEFF 		bl	gfx_setTextSize
 1392              	.LVL181:
  80:HallEffect.c  ****         display_update();
 1393              		.loc 1 80 0
 1394 008a 2046     		mov	r0, r4
 1395 008c FFF7FEFF 		bl	gfx_println
 1396              	.LVL182:
  81:HallEffect.c  ****         
 1397              		.loc 1 81 0
 1398 0090 FFF7FEFF 		bl	display_update
 1399              	.LVL183:
ARM GAS  C:\Users\z004e6he\AppData\Local\Temp\cc9aJYfw.s 			page 36


  84:HallEffect.c  ****         (*pinWriteArr[calibrationKey[COLUMN_INDEX]])(HIGH);
 1400              		.loc 1 84 0
 1401 0094 9DF81400 		ldrb	r0, [sp, #20]	@ zero_extendqisi2
 1402 0098 FFF7FEFF 		bl	AMux_FastSelect
 1403              	.LVL184:
  85:HallEffect.c  ****         uint16 count = 0;
 1404              		.loc 1 85 0
 1405 009c 9DF81520 		ldrb	r2, [sp, #21]	@ zero_extendqisi2
 1406 00a0 844B     		ldr	r3, .L118+12
 1407 00a2 53F82230 		ldr	r3, [r3, r2, lsl #2]
 1408 00a6 0120     		movs	r0, #1
 1409 00a8 9847     		blx	r3
 1410              	.LVL185:
  86:HallEffect.c  ****         //CALIBRATION_START_COUNT is defined as half the ADC sample rate, this loop always lasts ~5
 1411              		.loc 1 86 0
 1412 00aa 0024     		movs	r4, #0
  88:HallEffect.c  ****             if(ADC_Read16() < DEFAULT_TRIGGER_VALUE){
 1413              		.loc 1 88 0
 1414 00ac 35E0     		b	.L96
 1415              	.LVL186:
 1416              	.L102:
  89:HallEffect.c  ****                 uint8 completed = FALSE;
 1417              		.loc 1 89 0
 1418 00ae FFF7FEFF 		bl	ADC_Read16
 1419              	.LVL187:
 1420 00b2 B0F5FA6F 		cmp	r0, #2000
 1421 00b6 2EDA     		bge	.L97
 1422              	.LVL188:
 1423              	.LBB6:
  94:HallEffect.c  ****                 //Output to the display
 1424              		.loc 1 94 0
 1425 00b8 7F48     		ldr	r0, .L118+16
 1426 00ba FFF7FEFF 		bl	UART_PutString
 1427              	.LVL189:
  96:HallEffect.c  ****                 display_update();
 1428              		.loc 1 96 0
 1429 00be FFF7FEFF 		bl	display_clear
 1430              	.LVL190:
  97:HallEffect.c  ****                 //Set cursor to readable position - for the first ~40 lines only every second one w
 1431              		.loc 1 97 0
 1432 00c2 FFF7FEFF 		bl	display_update
 1433              	.LVL191:
 100:HallEffect.c  ****                 gfx_setTextSize(1);
 1434              		.loc 1 100 0
 1435 00c6 2821     		movs	r1, #40
 1436 00c8 0020     		movs	r0, #0
 1437 00ca FFF7FEFF 		bl	gfx_setCursor
 1438              	.LVL192:
 101:HallEffect.c  ****                 gfx_println("Release the key to start calibration\r\n");
 1439              		.loc 1 101 0
 1440 00ce 0120     		movs	r0, #1
 1441 00d0 FFF7FEFF 		bl	gfx_setTextSize
 1442              	.LVL193:
 102:HallEffect.c  ****                 display_update();
 1443              		.loc 1 102 0
 1444 00d4 7948     		ldr	r0, .L118+20
 1445 00d6 FFF7FEFF 		bl	gfx_println
ARM GAS  C:\Users\z004e6he\AppData\Local\Temp\cc9aJYfw.s 			page 37


 1446              	.LVL194:
 103:HallEffect.c  ****                 while(!completed){
 1447              		.loc 1 103 0
 1448 00da FFF7FEFF 		bl	display_update
 1449              	.LVL195:
  90:HallEffect.c  ****                 calibrationDoneThisInit = TRUE;
 1450              		.loc 1 90 0
 1451 00de 0024     		movs	r4, #0
 1452              	.LVL196:
 104:HallEffect.c  ****                     //Wait until key is released again
 1453              		.loc 1 104 0
 1454 00e0 08E0     		b	.L99
 1455              	.LVL197:
 1456              	.L100:
 106:HallEffect.c  ****                         completed = TRUE;
 1457              		.loc 1 106 0
 1458 00e2 FFF7FEFF 		bl	ADC_Read16
 1459              	.LVL198:
 1460 00e6 B0F5FA6F 		cmp	r0, #2000
 1461 00ea 03DD     		ble	.L99
 1462              	.LVL199:
 109:HallEffect.c  ****                     }
 1463              		.loc 1 109 0
 1464 00ec 6420     		movs	r0, #100
 1465 00ee FFF7FEFF 		bl	CyDelay
 1466              	.LVL200:
 107:HallEffect.c  ****                         //Delay to make sure the key is released completely before function is call
 1467              		.loc 1 107 0
 1468 00f2 0124     		movs	r4, #1
 1469              	.LVL201:
 1470              	.L99:
 104:HallEffect.c  ****                     //Wait until key is released again
 1471              		.loc 1 104 0
 1472 00f4 002C     		cmp	r4, #0
 1473 00f6 F4D0     		beq	.L100
 113:HallEffect.c  ****                 (*pinWriteArr[calibrationKey[COLUMN_INDEX]])(LOW);
 1474              		.loc 1 113 0
 1475 00f8 9DF81400 		ldrb	r0, [sp, #20]	@ zero_extendqisi2
 1476 00fc FFF7FEFF 		bl	AMux_Unset
 1477              	.LVL202:
 114:HallEffect.c  ****                 //Call the calibration function
 1478              		.loc 1 114 0
 1479 0100 9DF81520 		ldrb	r2, [sp, #21]	@ zero_extendqisi2
 1480 0104 6B4B     		ldr	r3, .L118+12
 1481 0106 53F82230 		ldr	r3, [r3, r2, lsl #2]
 1482 010a 0020     		movs	r0, #0
 1483 010c 9847     		blx	r3
 1484              	.LVL203:
 116:HallEffect.c  ****                 //Exit the loop to avoid retriggering calibration on this boot
 1485              		.loc 1 116 0
 1486 010e FFF7FEFF 		bl	calibrateSwitches
 1487              	.LVL204:
  91:HallEffect.c  ****                 //Only start calibrating after the calibration key has been released
 1488              		.loc 1 91 0
 1489 0112 0124     		movs	r4, #1
 1490              	.LVL205:
 118:HallEffect.c  ****             }
ARM GAS  C:\Users\z004e6he\AppData\Local\Temp\cc9aJYfw.s 			page 38


 1491              		.loc 1 118 0
 1492 0114 06E0     		b	.L101
 1493              	.LVL206:
 1494              	.L97:
 1495              	.LBE6:
 120:HallEffect.c  ****         }
 1496              		.loc 1 120 0
 1497 0116 0134     		adds	r4, r4, #1
 1498              	.LVL207:
 1499 0118 A4B2     		uxth	r4, r4
 1500              	.LVL208:
 1501              	.L96:
  88:HallEffect.c  ****             if(ADC_Read16() < DEFAULT_TRIGGER_VALUE){
 1502              		.loc 1 88 0
 1503 011a 45F69933 		movw	r3, #23449
 1504 011e 9C42     		cmp	r4, r3
 1505 0120 C5D9     		bls	.L102
 1506              	.LBE5:
  43:HallEffect.c  ****     const uint8 calibrationKey[2] = {(CALIBRATION_KEY[ROW_INDEX] - ASCII_OFFSET), 
 1507              		.loc 1 43 0
 1508 0122 0024     		movs	r4, #0
 1509              	.LVL209:
 1510              	.L101:
 1511              	.LBB7:
 123:HallEffect.c  ****     }
 1512              		.loc 1 123 0
 1513 0124 9DF81520 		ldrb	r2, [sp, #21]	@ zero_extendqisi2
 1514 0128 624B     		ldr	r3, .L118+12
 1515 012a 53F82230 		ldr	r3, [r3, r2, lsl #2]
 1516 012e 0020     		movs	r0, #0
 1517 0130 9847     		blx	r3
 1518              	.LVL210:
 1519              	.L95:
 1520              	.LBE7:
 128:HallEffect.c  ****         for(row = 0; row < ROWS; row++){
 1521              		.loc 1 128 0
 1522 0132 002C     		cmp	r4, #0
 1523 0134 3ED1     		bne	.L113
 1524 0136 0025     		movs	r5, #0
 1525 0138 78E0     		b	.L104
 1526              	.LVL211:
 1527              	.L105:
 133:HallEffect.c  ****                 //Get the remaining 8 bits, 255 = 11111111
 1528              		.loc 1 133 0 discriminator 3
 1529 013a 8B00     		lsls	r3, r1, #2
 1530 013c 604E     		ldr	r6, .L118+24
 1531 013e 4D00     		lsls	r5, r1, #1
 1532 0140 6A18     		adds	r2, r5, r1
 1533 0142 9700     		lsls	r7, r2, #2
 1534 0144 6000     		lsls	r0, r4, #1
 1535 0146 00EB040E 		add	lr, r0, r4
 1536 014a 4FEA0E12 		lsl	r2, lr, #4
 1537 014e 3A44     		add	r2, r2, r7
 1538 0150 3244     		add	r2, r2, r6
 1539 0152 5789     		ldrh	r7, [r2, #10]
 1540 0154 C7F30727 		ubfx	r7, r7, #8, #8
 1541 0158 0DF1980E 		add	lr, sp, #152
ARM GAS  C:\Users\z004e6he\AppData\Local\Temp\cc9aJYfw.s 			page 39


 1542 015c 9E44     		add	lr, lr, r3
 1543 015e 0EF8947C 		strb	r7, [lr, #-148]
 135:HallEffect.c  ****                 //Same for the max value
 1544              		.loc 1 135 0 discriminator 3
 1545 0162 5F1C     		adds	r7, r3, #1
 1546 0164 B2F80AE0 		ldrh	lr, [r2, #10]
 1547 0168 0DF1980C 		add	ip, sp, #152
 1548 016c 6744     		add	r7, r7, ip
 1549 016e 07F894EC 		strb	lr, [r7, #-148]
 137:HallEffect.c  ****                 rowData[col * COLUMNS + 3] = (uint8)(matrix[row][col].max & 255);
 1550              		.loc 1 137 0 discriminator 3
 1551 0172 9F1C     		adds	r7, r3, #2
 1552 0174 B2F808E0 		ldrh	lr, [r2, #8]
 1553 0178 CEF3072E 		ubfx	lr, lr, #8, #8
 1554 017c 6246     		mov	r2, ip
 1555 017e 3A44     		add	r2, r2, r7
 1556 0180 02F894EC 		strb	lr, [r2, #-148]
 138:HallEffect.c  ****             }
 1557              		.loc 1 138 0 discriminator 3
 1558 0184 0333     		adds	r3, r3, #3
 1559 0186 0D44     		add	r5, r5, r1
 1560 0188 AF00     		lsls	r7, r5, #2
 1561 018a 2044     		add	r0, r0, r4
 1562 018c 0201     		lsls	r2, r0, #4
 1563 018e 3A44     		add	r2, r2, r7
 1564 0190 3244     		add	r2, r2, r6
 1565 0192 1289     		ldrh	r2, [r2, #8]
 1566 0194 6344     		add	r3, r3, ip
 1567 0196 03F8942C 		strb	r2, [r3, #-148]
 130:HallEffect.c  ****                 //A conversion from uint16 to two uint8 is needed
 1568              		.loc 1 130 0 discriminator 3
 1569 019a 0131     		adds	r1, r1, #1
 1570              	.LVL212:
 1571 019c C9B2     		uxtb	r1, r1
 1572              	.LVL213:
 1573 019e 00E0     		b	.L106
 1574              	.LVL214:
 1575              	.L114:
 1576 01a0 0021     		movs	r1, #0
 1577              	.L106:
 1578              	.LVL215:
 130:HallEffect.c  ****                 //A conversion from uint16 to two uint8 is needed
 1579              		.loc 1 130 0 is_stmt 0 discriminator 1
 1580 01a2 0329     		cmp	r1, #3
 1581 01a4 C9D9     		bls	.L105
 141:HallEffect.c  ****         }
 1582              		.loc 1 141 0 is_stmt 1 discriminator 2
 1583 01a6 2146     		mov	r1, r4
 1584              	.LVL216:
 1585 01a8 01A8     		add	r0, sp, #4
 1586 01aa FFF7FEFF 		bl	EEPROM_Write
 1587              	.LVL217:
 129:HallEffect.c  ****             for(col = 0; col < COLUMNS; col++){
 1588              		.loc 1 129 0 discriminator 2
 1589 01ae 0134     		adds	r4, r4, #1
 1590              	.LVL218:
 1591 01b0 E4B2     		uxtb	r4, r4
ARM GAS  C:\Users\z004e6he\AppData\Local\Temp\cc9aJYfw.s 			page 40


 1592              	.LVL219:
 1593 01b2 00E0     		b	.L103
 1594              	.LVL220:
 1595              	.L113:
 1596 01b4 0024     		movs	r4, #0
 1597              	.LVL221:
 1598              	.L103:
 129:HallEffect.c  ****             for(col = 0; col < COLUMNS; col++){
 1599              		.loc 1 129 0 is_stmt 0 discriminator 1
 1600 01b6 032C     		cmp	r4, #3
 1601 01b8 F2D9     		bls	.L114
 1602 01ba 39E0     		b	.L107
 1603              	.LVL222:
 1604              	.L108:
 1605              	.LBB8:
 151:HallEffect.c  ****                 //Shift the first 8 bits to the left to make room for the second byte
 1606              		.loc 1 151 0 is_stmt 1 discriminator 3
 1607 01bc 04EB8500 		add	r0, r4, r5, lsl #2
 1608 01c0 8000     		lsls	r0, r0, #2
 1609 01c2 86B2     		uxth	r6, r0
 1610 01c4 3046     		mov	r0, r6
 1611 01c6 FFF7FEFF 		bl	EEPROM_ReadByte
 1612              	.LVL223:
 1613 01ca 0002     		lsls	r0, r0, #8
 1614 01cc 87B2     		uxth	r7, r0
 1615              	.LVL224:
 154:HallEffect.c  ****                 //Do the same for the max value
 1616              		.loc 1 154 0 discriminator 3
 1617 01ce 701C     		adds	r0, r6, #1
 1618 01d0 80B2     		uxth	r0, r0
 1619 01d2 FFF7FEFF 		bl	EEPROM_ReadByte
 1620              	.LVL225:
 1621 01d6 3843     		orrs	r0, r0, r7
 1622 01d8 87B2     		uxth	r7, r0
 1623              	.LVL226:
 156:HallEffect.c  ****                 eeprom_max |= EEPROM_ReadByte(row * ROWS*COLUMNS + col * COLUMNS + 3);
 1624              		.loc 1 156 0 discriminator 3
 1625 01da B01C     		adds	r0, r6, #2
 1626 01dc 80B2     		uxth	r0, r0
 1627 01de FFF7FEFF 		bl	EEPROM_ReadByte
 1628              	.LVL227:
 1629 01e2 0002     		lsls	r0, r0, #8
 1630 01e4 1FFA80F8 		uxth	r8, r0
 1631              	.LVL228:
 157:HallEffect.c  ****                 //Save the read values to the switch struct
 1632              		.loc 1 157 0 discriminator 3
 1633 01e8 F01C     		adds	r0, r6, #3
 1634 01ea 80B2     		uxth	r0, r0
 1635 01ec FFF7FEFF 		bl	EEPROM_ReadByte
 1636              	.LVL229:
 1637 01f0 48EA0000 		orr	r0, r8, r0
 1638 01f4 80B2     		uxth	r0, r0
 1639              	.LVL230:
 159:HallEffect.c  ****                 matrix[row][col].max = eeprom_max;
 1640              		.loc 1 159 0 discriminator 3
 1641 01f6 DFF8C8E0 		ldr	lr, .L118+24
 1642 01fa 6600     		lsls	r6, r4, #1
ARM GAS  C:\Users\z004e6he\AppData\Local\Temp\cc9aJYfw.s 			page 41


 1643 01fc 3219     		adds	r2, r6, r4
 1644 01fe 9300     		lsls	r3, r2, #2
 1645 0200 6900     		lsls	r1, r5, #1
 1646 0202 01EB050C 		add	ip, r1, r5
 1647 0206 4FEA0C12 		lsl	r2, ip, #4
 1648 020a 9446     		mov	ip, r2
 1649 020c 1A44     		add	r2, r2, r3
 1650 020e 7244     		add	r2, r2, lr
 1651 0210 5781     		strh	r7, [r2, #10]	@ movhi
 160:HallEffect.c  ****             }
 1652              		.loc 1 160 0 discriminator 3
 1653 0212 1E46     		mov	r6, r3
 1654 0214 6346     		mov	r3, ip
 1655 0216 3344     		add	r3, r3, r6
 1656 0218 7344     		add	r3, r3, lr
 1657 021a 1881     		strh	r0, [r3, #8]	@ movhi
 148:HallEffect.c  ****                 //EEPROM saves in bytes, so a conversion from two bytes to one uint16 is needed
 1658              		.loc 1 148 0 discriminator 3
 1659 021c 0134     		adds	r4, r4, #1
 1660              	.LVL231:
 1661 021e E4B2     		uxtb	r4, r4
 1662              	.LVL232:
 1663 0220 00E0     		b	.L109
 1664              	.LVL233:
 1665              	.L115:
 1666 0222 0024     		movs	r4, #0
 1667              	.L109:
 1668              	.LVL234:
 148:HallEffect.c  ****                 //EEPROM saves in bytes, so a conversion from two bytes to one uint16 is needed
 1669              		.loc 1 148 0 is_stmt 0 discriminator 1
 1670 0224 032C     		cmp	r4, #3
 1671 0226 C9D9     		bls	.L108
 147:HallEffect.c  ****             for(col = 0; col < COLUMNS; col++){
 1672              		.loc 1 147 0 is_stmt 1 discriminator 2
 1673 0228 0135     		adds	r5, r5, #1
 1674              	.LVL235:
 1675 022a EDB2     		uxtb	r5, r5
 1676              	.LVL236:
 1677              	.L104:
 147:HallEffect.c  ****             for(col = 0; col < COLUMNS; col++){
 1678              		.loc 1 147 0 is_stmt 0 discriminator 1
 1679 022c 032D     		cmp	r5, #3
 1680 022e F8D9     		bls	.L115
 1681              	.LVL237:
 1682              	.L107:
 1683              	.LBE8:
 1684 0230 0027     		movs	r7, #0
 1685 0232 34E0     		b	.L110
 1686              	.LVL238:
 1687              	.L111:
 171:HallEffect.c  ****                                                            matrix[row][col].max, MODE_CONVERT_HEIGH
 1688              		.loc 1 171 0 is_stmt 1 discriminator 3
 1689 0234 DFF88880 		ldr	r8, .L118+24
 1690 0238 4FEA4409 		lsl	r9, r4, #1
 1691 023c 09EB0403 		add	r3, r9, r4
 1692 0240 4FEA830A 		lsl	r10, r3, #2
 1693 0244 7E00     		lsls	r6, r7, #1
ARM GAS  C:\Users\z004e6he\AppData\Local\Temp\cc9aJYfw.s 			page 42


 1694 0246 F219     		adds	r2, r6, r7
 1695 0248 1301     		lsls	r3, r2, #4
 1696 024a 9A44     		add	r10, r10, r3
 1697 024c 08EB0A05 		add	r5, r8, r10
 1698 0250 6989     		ldrh	r1, [r5, #10]
 1699 0252 2A89     		ldrh	r2, [r5, #8]
 1700 0254 04EB870B 		add	fp, r4, r7, lsl #2
 1701 0258 26AB     		add	r3, sp, #152
 1702 025a 03EB8B0B 		add	fp, r3, fp, lsl #2
 1703 025e 0023     		movs	r3, #0
 1704 0260 92B2     		uxth	r2, r2
 1705 0262 89B2     		uxth	r1, r1
 1706 0264 5BF8400C 		ldr	r0, [fp, #-64]	@ float
 1707 0268 FFF7FEFF 		bl	convertToVal
 1708              	.LVL239:
 1709 026c 6880     		strh	r0, [r5, #2]	@ movhi
 174:HallEffect.c  ****                                                            matrix[row][col].max, MODE_CONVERT_DISTA
 1710              		.loc 1 174 0 discriminator 3
 1711 026e 6989     		ldrh	r1, [r5, #10]
 1712 0270 2A89     		ldrh	r2, [r5, #8]
 1713 0272 0123     		movs	r3, #1
 1714 0274 92B2     		uxth	r2, r2
 1715 0276 89B2     		uxth	r1, r1
 1716 0278 5BF8800C 		ldr	r0, [fp, #-128]	@ float
 1717 027c FFF7FEFF 		bl	convertToVal
 1718              	.LVL240:
 1719 0280 E880     		strh	r0, [r5, #6]	@ movhi
 185:HallEffect.c  ****             
 1720              		.loc 1 185 0 discriminator 3
 1721 0282 0023     		movs	r3, #0
 1722 0284 08F80A30 		strb	r3, [r8, r10]
 189:HallEffect.c  ****             #endif
 1723              		.loc 1 189 0 discriminator 3
 1724 0288 6A88     		ldrh	r2, [r5, #2]
 1725 028a 92B2     		uxth	r2, r2
 1726 028c AA80     		strh	r2, [r5, #4]	@ movhi
 168:HallEffect.c  ****             #ifdef CALIBRATE_SWITCHES
 1727              		.loc 1 168 0 discriminator 3
 1728 028e 0134     		adds	r4, r4, #1
 1729              	.LVL241:
 1730 0290 E4B2     		uxtb	r4, r4
 1731              	.LVL242:
 1732 0292 00E0     		b	.L112
 1733              	.LVL243:
 1734              	.L116:
 1735 0294 0024     		movs	r4, #0
 1736              	.L112:
 1737              	.LVL244:
 168:HallEffect.c  ****             #ifdef CALIBRATE_SWITCHES
 1738              		.loc 1 168 0 is_stmt 0 discriminator 1
 1739 0296 032C     		cmp	r4, #3
 1740 0298 CCD9     		bls	.L111
 167:HallEffect.c  ****         for(col = 0; col < COLUMNS; col++){
 1741              		.loc 1 167 0 is_stmt 1 discriminator 2
 1742 029a 0137     		adds	r7, r7, #1
 1743              	.LVL245:
 1744 029c FFB2     		uxtb	r7, r7
ARM GAS  C:\Users\z004e6he\AppData\Local\Temp\cc9aJYfw.s 			page 43


 1745              	.LVL246:
 1746              	.L110:
 167:HallEffect.c  ****         for(col = 0; col < COLUMNS; col++){
 1747              		.loc 1 167 0 is_stmt 0 discriminator 1
 1748 029e 032F     		cmp	r7, #3
 1749 02a0 F8D9     		bls	.L116
 193:HallEffect.c  **** 
 1750              		.loc 1 193 0 is_stmt 1
 1751 02a2 27B0     		add	sp, sp, #156
 1752              		.cfi_def_cfa_offset 36
 1753              		@ sp needed
 1754 02a4 BDE8F08F 		pop	{r4, r5, r6, r7, r8, r9, r10, fp, pc}
 1755              	.LVL247:
 1756              	.L119:
 1757              		.align	2
 1758              	.L118:
 1759 02a8 00000000 		.word	.LANCHOR1
 1760 02ac 00000000 		.word	Transmitbuffer
 1761 02b0 58040000 		.word	.LC18
 1762 02b4 00000000 		.word	.LANCHOR0
 1763 02b8 84040000 		.word	.LC19
 1764 02bc AC040000 		.word	.LC20
 1765 02c0 00000000 		.word	matrix
 1766              		.cfi_endproc
 1767              	.LFE64:
 1768              		.size	keyboardInit, .-keyboardInit
 1769              		.global	pinWriteArr
 1770              		.comm	Transmitbuffer,64,4
 1771              		.comm	action,1,1
 1772              		.comm	actionBuffer,16,4
 1773              		.comm	prevMatrix,16,4
 1774              		.comm	matrix,192,4
 1775              		.section	.rodata
 1776              		.align	2
 1777              		.set	.LANCHOR1,. + 0
 1778              	.LC0:
 1779 0000 0000803F 		.word	1065353216
 1780 0004 9A99993E 		.word	1050253722
 1781 0008 0000003F 		.word	1056964608
 1782 000c 0000803F 		.word	1065353216
 1783 0010 0000003F 		.word	1056964608
 1784 0014 0000803F 		.word	1065353216
 1785 0018 0000003F 		.word	1056964608
 1786 001c 0000803F 		.word	1065353216
 1787 0020 0000803F 		.word	1065353216
 1788 0024 0000803F 		.word	1065353216
 1789 0028 0000003F 		.word	1056964608
 1790 002c 0000803F 		.word	1065353216
 1791 0030 0000803F 		.word	1065353216
 1792 0034 0000803F 		.word	1065353216
 1793 0038 0000003F 		.word	1056964608
 1794 003c 0000803F 		.word	1065353216
 1795              	.LC1:
 1796 0040 CDCC4C3D 		.word	1028443341
 1797 0044 CDCCCC3D 		.word	1036831949
 1798 0048 CDCCCC3D 		.word	1036831949
 1799 004c CDCCCC3D 		.word	1036831949
ARM GAS  C:\Users\z004e6he\AppData\Local\Temp\cc9aJYfw.s 			page 44


 1800 0050 00002040 		.word	1075838976
 1801 0054 CDCCCC3D 		.word	1036831949
 1802 0058 CDCCCC3D 		.word	1036831949
 1803 005c CDCCCC3D 		.word	1036831949
 1804 0060 CDCCCC3D 		.word	1036831949
 1805 0064 CDCCCC3D 		.word	1036831949
 1806 0068 CDCCCC3D 		.word	1036831949
 1807 006c CDCCCC3D 		.word	1036831949
 1808 0070 CDCCCC3D 		.word	1036831949
 1809 0074 CDCCCC3D 		.word	1036831949
 1810 0078 CDCCCC3D 		.word	1036831949
 1811 007c CDCCCC3D 		.word	1036831949
 1812              		.data
 1813              		.align	2
 1814              		.set	.LANCHOR0,. + 0
 1815              		.type	pinWriteArr, %object
 1816              		.size	pinWriteArr, 16
 1817              	pinWriteArr:
 1818 0000 00000000 		.word	Col0_Write
 1819 0004 00000000 		.word	Col1_Write
 1820 0008 00000000 		.word	Col2_Write
 1821 000c 00000000 		.word	Col3_Write
 1822              		.section	.rodata.str1.4,"aMS",%progbits,1
 1823              		.align	2
 1824              	.LC2:
 1825 0000 50726573 		.ascii	"Press each key all the way down to complete the cal"
 1825      73206561 
 1825      6368206B 
 1825      65792061 
 1825      6C6C2074 
 1826 0033 69627261 		.ascii	"ibration\015\012\000"
 1826      74696F6E 
 1826      0D0A00
 1827 003e 0000     		.space	2
 1828              	.LC3:
 1829 0040 50726573 		.ascii	"Press and release key [%i/%i]\015\012\000"
 1829      7320616E 
 1829      64207265 
 1829      6C656173 
 1829      65206B65 
 1830              	.LC4:
 1831 0060 6C6F7765 		.ascii	"lowest: %i\015\012\000"
 1831      73743A20 
 1831      25690D0A 
 1831      00
 1832 006d 000000   		.space	3
 1833              	.LC5:
 1834 0070 6D696E3A 		.ascii	"min: %i,\015\012max: %i\015\012\000"
 1834      2025692C 
 1834      0D0A6D61 
 1834      783A2025 
 1834      690D0A00 
 1835              	.LC6:
 1836 0084 5761726E 		.ascii	"Warning: Steps less than %u.%u mm are experimental "
 1836      696E673A 
 1836      20537465 
 1836      7073206C 
ARM GAS  C:\Users\z004e6he\AppData\Local\Temp\cc9aJYfw.s 			page 45


 1836      65737320 
 1837 00b7 616E6420 		.ascii	"and might cause issues.\015\012\000"
 1837      6D696768 
 1837      74206361 
 1837      75736520 
 1837      69737375 
 1838 00d1 000000   		.space	3
 1839              	.LC7:
 1840 00d4 4572726F 		.ascii	"Error: Trigger height set for switch [%u/%u] is too"
 1840      723A2054 
 1840      72696767 
 1840      65722068 
 1840      65696768 
 1841 0107 20686967 		.ascii	" high!\015\012The maximum height allowed is %u.%u m"
 1841      68210D0A 
 1841      54686520 
 1841      6D617869 
 1841      6D756D20 
 1842 0134 6D2E0D0A 		.ascii	"m.\015\012\000"
 1842      00
 1843 0139 000000   		.space	3
 1844              	.LC8:
 1845 013c 4572726F 		.ascii	"Error: Trigger heightset for switch [%u/%u] is too "
 1845      723A2054 
 1845      72696767 
 1845      65722068 
 1845      65696768 
 1846 016f 6C6F7721 		.ascii	"low!\015\012The minimum height allowed is %u.%u mm."
 1846      0D0A5468 
 1846      65206D69 
 1846      6E696D75 
 1846      6D206865 
 1847 019c 0D0A00   		.ascii	"\015\012\000"
 1848 019f 00       		.space	1
 1849              	.LC9:
 1850 01a0 4572726F 		.ascii	"Error: Rapid trigger distance is too high!\015\012T"
 1850      723A2052 
 1850      61706964 
 1850      20747269 
 1850      67676572 
 1851 01cd 6865206D 		.ascii	"he maximum distance allowed is %u.%u mm.\015\012\000"
 1851      6178696D 
 1851      756D2064 
 1851      69737461 
 1851      6E636520 
 1852              	.LC10:
 1853 01f8 4572726F 		.ascii	"Error: Rapid trigger distance is too low!\015\012Th"
 1853      723A2052 
 1853      61706964 
 1853      20747269 
 1853      67676572 
 1854 0225 65206D69 		.ascii	"e minimum distance allowed is %u.%u mm.\015\012\000"
 1854      6E696D75 
 1854      6D206469 
 1854      7374616E 
 1854      63652061 
 1855 024f 00       		.space	1
ARM GAS  C:\Users\z004e6he\AppData\Local\Temp\cc9aJYfw.s 			page 46


 1856              	.LC11:
 1857 0250 4572726F 		.ascii	"Error: Calibration key row is too high!\015\012The "
 1857      723A2043 
 1857      616C6962 
 1857      72617469 
 1857      6F6E206B 
 1858 027d 6C617267 		.ascii	"largest number allowed is %u.\015\012\000"
 1858      65737420 
 1858      6E756D62 
 1858      65722061 
 1858      6C6C6F77 
 1859 029d 000000   		.space	3
 1860              	.LC12:
 1861 02a0 4572726F 		.ascii	"Error: Calibration key row can't be less than 0!\015"
 1861      723A2043 
 1861      616C6962 
 1861      72617469 
 1861      6F6E206B 
 1862 02d1 0A00     		.ascii	"\012\000"
 1863 02d3 00       		.space	1
 1864              	.LC13:
 1865 02d4 4572726F 		.ascii	"Error: Calibration key column is too high!\015\012T"
 1865      723A2043 
 1865      616C6962 
 1865      72617469 
 1865      6F6E206B 
 1866 0301 6865206C 		.ascii	"he largest number allowed is %u.\015\012\000"
 1866      61726765 
 1866      7374206E 
 1866      756D6265 
 1866      7220616C 
 1867              	.LC14:
 1868 0324 4572726F 		.ascii	"Error: Calibration key column can't be less than 0!"
 1868      723A2043 
 1868      616C6962 
 1868      72617469 
 1868      6F6E206B 
 1869 0357 0D0A00   		.ascii	"\015\012\000"
 1870 035a 0000     		.space	2
 1871              	.LC15:
 1872 035c 4572726F 		.ascii	"Error: The calibration key must not be disabled!\015"
 1872      723A2054 
 1872      68652063 
 1872      616C6962 
 1872      72617469 
 1873 038d 0A00     		.ascii	"\012\000"
 1874 038f 00       		.space	1
 1875              	.LC16:
 1876 0390 4572726F 		.ascii	"Error: The EEPROM is not large enough to save the d"
 1876      723A2054 
 1876      68652045 
 1876      4550524F 
 1876      4D206973 
 1877 03c3 61746120 		.ascii	"ata of all keys!\015\012Disable calibration or redu"
 1877      6F662061 
 1877      6C6C206B 
 1877      65797321 
ARM GAS  C:\Users\z004e6he\AppData\Local\Temp\cc9aJYfw.s 			page 47


 1877      0D0A4469 
 1878 03f0 63652074 		.ascii	"ce the amount of keys.\015\012\000"
 1878      68652061 
 1878      6D6F756E 
 1878      74206F66 
 1878      206B6579 
 1879 0409 000000   		.space	3
 1880              	.LC17:
 1881 040c 4368616E 		.ascii	"Change the appropriate setting in config.h and flas"
 1881      67652074 
 1881      68652061 
 1881      7070726F 
 1881      70726961 
 1882 043f 68207468 		.ascii	"h the firmware again.\015\012\000"
 1882      65206669 
 1882      726D7761 
 1882      72652061 
 1882      6761696E 
 1883 0457 00       		.space	1
 1884              	.LC18:
 1885 0458 50726573 		.ascii	"Press key [%i/%i] to start calibration\015\012\000"
 1885      73206B65 
 1885      79205B25 
 1885      692F2569 
 1885      5D20746F 
 1886 0481 000000   		.space	3
 1887              	.LC19:
 1888 0484 52656C65 		.ascii	"Release the key to start calibrating\015\012\000"
 1888      61736520 
 1888      74686520 
 1888      6B657920 
 1888      746F2073 
 1889 04ab 00       		.space	1
 1890              	.LC20:
 1891 04ac 52656C65 		.ascii	"Release the key to start calibration\015\012\000"
 1891      61736520 
 1891      74686520 
 1891      6B657920 
 1891      746F2073 
 1892              		.text
 1893              	.Letext0:
 1894              		.file 2 "c:\\program files (x86)\\cypress\\psoc creator\\4.4\\psoc creator\\import\\gnu\\arm\\5.4.
 1895              		.file 3 "c:\\program files (x86)\\cypress\\psoc creator\\4.4\\psoc creator\\import\\gnu\\arm\\5.4.
 1896              		.file 4 "Generated_Source\\PSoC5/cytypes.h"
 1897              		.file 5 "HallEffect.h"
 1898              		.file 6 "Generated_Source\\PSoC5/core_cm3.h"
 1899              		.file 7 "Generated_Source\\PSoC5/CyLib.h"
 1900              		.file 8 "Generated_Source\\PSoC5/ADC.h"
 1901              		.file 9 "Generated_Source\\PSoC5/AMux.h"
 1902              		.file 10 "c:\\program files (x86)\\cypress\\psoc creator\\4.4\\psoc creator\\import\\gnu\\arm\\5.4
 1903              		.file 11 "Generated_Source\\PSoC5/UART.h"
 1904              		.file 12 "ssd1306.h"
 1905              		.file 13 "Generated_Source\\PSoC5/cyfitter_cfg.h"
 1906              		.file 14 "Generated_Source\\PSoC5/EEPROM.h"