ARM GAS  C:\Users\z004e6he\AppData\Local\Temp\cc50y5UT.s 			page 1


   1              		.syntax unified
   2              		.cpu cortex-m3
   3              		.fpu softvfp
   4              		.eabi_attribute 20, 1
   5              		.eabi_attribute 21, 1
   6              		.eabi_attribute 23, 3
   7              		.eabi_attribute 24, 1
   8              		.eabi_attribute 25, 1
   9              		.eabi_attribute 26, 1
  10              		.eabi_attribute 30, 1
  11              		.eabi_attribute 34, 1
  12              		.eabi_attribute 18, 4
  13              		.thumb
  14              		.syntax unified
  15              		.file	"pages.c"
  16              		.text
  17              	.Ltext0:
  18              		.cfi_sections	.debug_frame
  19              		.section	.text.setPage,"ax",%progbits
  20              		.align	2
  21              		.global	setPage
  22              		.thumb
  23              		.thumb_func
  24              		.type	setPage, %function
  25              	setPage:
  26              	.LFB64:
  27              		.file 1 "pages.c"
   1:pages.c       **** /*
   2:pages.c       ****  * ======================================================================================
   3:pages.c       ****  *
   4:pages.c       ****  * Names: Luca Spengler (1399655), Fabian Fritz (1394906)
   5:pages.c       ****  * Emails: luca.spengler2@stud.fra-uas.de, fabian.fritz@stud.fra-uas.de
   6:pages.c       ****  * Date: 30.05.2024
   7:pages.c       ****  * Course ID: TX00DB04
   8:pages.c       ****  * Description: This project reads the analog outputs of a hall effect sensor matrix
   9:pages.c       ****  *              to switch between several output modes, then reads the inputs of
  10:pages.c       ****  *              hall effect, temperature and ultrasound sensors and displays them
  11:pages.c       ****  *              in different ways based on the output mode. The various output modes
  12:pages.c       ****  *              are described in the pages.h file.
  13:pages.c       ****  *
  14:pages.c       ****  *              The keyboard is arranged in a 4 by 4 matrix, with a multiplexer to
  15:pages.c       ****  *              connect the rows to the internal ADC. It features per-key calibration
  16:pages.c       ****  *              as well as individually configurable trigger heights and rapid trigger
  17:pages.c       ****  *              distances on a per-key basis. Calibration can be started by holding the
  18:pages.c       ****  *              key defined in config.h on boot. 
  19:pages.c       ****  *
  20:pages.c       ****  *              The ssd1306 files come from a separate source and can be found here:
  21:pages.c       ****  *              https://github.com/NRDaza/Oled-Psoc5/tree/master
  22:pages.c       ****  * 
  23:pages.c       ****  * ======================================================================================
  24:pages.c       ****  */
  25:pages.c       **** 
  26:pages.c       **** /* Contains the output logic */
  27:pages.c       **** 
  28:pages.c       **** #include "pages.h"
  29:pages.c       **** 
  30:pages.c       **** /* Global variables */
ARM GAS  C:\Users\z004e6he\AppData\Local\Temp\cc50y5UT.s 			page 2


  31:pages.c       **** volatile uint8 gPage = 0;
  32:pages.c       **** 
  33:pages.c       **** /* Local variables */
  34:pages.c       **** uint16 currentServoVal = SERVO_MAX_VALUE;
  35:pages.c       **** uint16 servoPosition = SERVO_MAX_VALUE;
  36:pages.c       **** 
  37:pages.c       **** /* Fairly useless here but an extended version including a buffer would be used in actual keyboards
  38:pages.c       ****    to track keyup and keydown events */
  39:pages.c       **** void setPage(uint8 action){
  28              		.loc 1 39 0
  29              		.cfi_startproc
  30              		@ args = 0, pretend = 0, frame = 0
  31              		@ frame_needed = 0, uses_anonymous_args = 0
  32              		@ link register save eliminated.
  33              	.LVL0:
  40:pages.c       ****     //Use keys to switch display modes, e.g. different sensors or different ways of displaying the 
  41:pages.c       ****     if(gPage != action){
  34              		.loc 1 41 0
  35 0000 034B     		ldr	r3, .L3
  36 0002 1B78     		ldrb	r3, [r3]	@ zero_extendqisi2
  37 0004 DBB2     		uxtb	r3, r3
  38 0006 8342     		cmp	r3, r0
  39 0008 01D0     		beq	.L1
  42:pages.c       ****         gPage = action;
  40              		.loc 1 42 0
  41 000a 014B     		ldr	r3, .L3
  42 000c 1870     		strb	r0, [r3]
  43              	.L1:
  44 000e 7047     		bx	lr
  45              	.L4:
  46              		.align	2
  47              	.L3:
  48 0010 00000000 		.word	.LANCHOR0
  49              		.cfi_endproc
  50              	.LFE64:
  51              		.size	setPage, .-setPage
  52              		.section	.text.updateServo,"ax",%progbits
  53              		.align	2
  54              		.global	updateServo
  55              		.thumb
  56              		.thumb_func
  57              		.type	updateServo, %function
  58              	updateServo:
  59              	.LFB66:
  43:pages.c       ****     }
  44:pages.c       **** }
  45:pages.c       **** 
  46:pages.c       **** void updatePage(uint8 page){
  47:pages.c       ****     uint8 row = sensor.position[ROW_INDEX];
  48:pages.c       ****     uint8 col = sensor.position[COLUMN_INDEX];
  49:pages.c       ****     int16 barWidth;
  50:pages.c       ****     switch(page){
  51:pages.c       ****         case 0: //Dashboard
  52:pages.c       ****         //Compute output information
  53:pages.c       ****         sprintf(Transmitbuffer, "Hall Effect: %i,\r\nTemperature: %i.%i C,\r\nUltrasound: %lu.%lu c
  54:pages.c       ****                 sensor.HallEffect, sensor.Temperature / TEMP_FACTOR, sensor.Temperature % TEMP_FACT
  55:pages.c       ****                 sensor.UltrasoundDistance / US_CONVERSION, sensor.UltrasoundDistance % US_CONVERSIO
ARM GAS  C:\Users\z004e6he\AppData\Local\Temp\cc50y5UT.s 			page 3


  56:pages.c       ****         break;
  57:pages.c       ****         
  58:pages.c       ****         case 1: //Hall sensor as value
  59:pages.c       ****         sprintf(Transmitbuffer, "Hall Effect: %i\r\n", sensor.HallEffect);
  60:pages.c       ****         break;
  61:pages.c       ****         
  62:pages.c       ****         case 2: //Hall sensor as bar
  63:pages.c       ****         sprintf(Transmitbuffer, "Hall Effect: %i\r\n", sensor.HallEffect);
  64:pages.c       ****         
  65:pages.c       ****         display_clear();
  66:pages.c       ****         #ifdef CALIBRATE_SWITCHES
  67:pages.c       ****         //Calculate the width of the bar, multiply by 100 to avoid floats
  68:pages.c       ****         barWidth = ((DISPLAY_WIDTH * 100) / (matrix[row][col].max - matrix[row][col].min)) * (senso
  69:pages.c       ****         #else
  70:pages.c       ****         barWidth = SWITCH_RANGE / DISPLAY_WIDTH * sensor.HallEffect;
  71:pages.c       ****         #endif
  72:pages.c       ****         //Clamp the width value
  73:pages.c       ****         if(barWidth > DISPLAY_WIDTH * 100){
  74:pages.c       ****             barWidth = DISPLAY_WIDTH * 100;
  75:pages.c       ****         }else if(barWidth < 0){
  76:pages.c       ****             barWidth = 0;
  77:pages.c       ****         }
  78:pages.c       ****         //Draw the bar as a filled rectangle, divide by 100 since value was multiplied by that amou
  79:pages.c       ****         gfx_fillRect(0, DISPLAY_OFFSET, barWidth / 100, DISPLAY_HEIGHT - DISPLAY_OFFSET, WHITE);
  80:pages.c       ****         display_update();
  81:pages.c       ****         break;
  82:pages.c       ****         
  83:pages.c       ****         case 3: //Hall sensor with servo output
  84:pages.c       ****         //Write the new servo position value
  85:pages.c       ****         updateServo();
  86:pages.c       ****         sprintf(Transmitbuffer, "Hall Effect: %i\r\nServo value: %i\r\n", sensor.HallEffect, servoP
  87:pages.c       ****         break;
  88:pages.c       ****         
  89:pages.c       ****         case 4: //Temperature as value in C
  90:pages.c       ****         sprintf(Transmitbuffer, "Temperature: %i.%i C\r\n", sensor.Temperature / TEMP_FACTOR, 
  91:pages.c       ****                 sensor.Temperature % TEMP_FACTOR);
  92:pages.c       ****         break;
  93:pages.c       ****         
  94:pages.c       ****         case 5: //Temperature as value in F
  95:pages.c       ****         sensor.Temperature = (sensor.Temperature * 9 / 5) + FAHRENHEIT_CONVERSION;
  96:pages.c       ****         sprintf(Transmitbuffer, "Temperature: %i.%i F\r\n", sensor.Temperature / TEMP_FACTOR, 
  97:pages.c       ****                 sensor.Temperature % TEMP_FACTOR);
  98:pages.c       ****         break;
  99:pages.c       ****         
 100:pages.c       ****         case 6: //Temperature as value in K
 101:pages.c       ****         sensor.Temperature = sensor.Temperature + KELVIN_CONVERSION;
 102:pages.c       ****         sprintf(Transmitbuffer, "Temperature: %i.%i K\r\n", sensor.Temperature / TEMP_FACTOR,
 103:pages.c       ****                 sensor.Temperature % TEMP_FACTOR);
 104:pages.c       ****         break;
 105:pages.c       ****         
 106:pages.c       ****         case 7: //Temperature as voltage
 107:pages.c       ****         sprintf(Transmitbuffer, "Temp Voltage: %i mV\r\n", sensor.Temperature);
 108:pages.c       ****         break;
 109:pages.c       ****         
 110:pages.c       ****         case 8: //Ultrasound as time value
 111:pages.c       ****         sprintf(Transmitbuffer, "Ultrasound time: %lu us\r\n", sensor.UltrasoundTime);
 112:pages.c       ****         break;
ARM GAS  C:\Users\z004e6he\AppData\Local\Temp\cc50y5UT.s 			page 4


 113:pages.c       ****         
 114:pages.c       ****         case 9: //Ultrasound as approximated distance
 115:pages.c       ****         sprintf(Transmitbuffer, "Ultrasound distance: %lu.%lu cm\r\n", sensor.UltrasoundDistance / 
 116:pages.c       ****                 sensor.UltrasoundDistance % US_CONVERSION);
 117:pages.c       ****         break;
 118:pages.c       ****         
 119:pages.c       ****         case 10: //Ultrasound as actual distance
 120:pages.c       ****         sprintf(Transmitbuffer, "Actual distance: %lu.%lu cm\r\n", sensor.ActualDistance / US_CONVE
 121:pages.c       ****                 sensor.ActualDistance % US_CONVERSION);
 122:pages.c       ****         break;
 123:pages.c       ****         
 124:pages.c       ****         case 11: //Ultrasound as actual distance in inches
 125:pages.c       ****         //Since the distance is saved as 10000 times the actual distance, floats are not an issue h
 126:pages.c       ****         //TODO: Uncomment this
 127:pages.c       ****         //sensor.ActualDistance = sensor.ActualDistance / INCH_CONVERSION;
 128:pages.c       ****         sprintf(Transmitbuffer, "Actual distance: %lu.%lu in\r\n", sensor.ActualDistance / US_CONVE
 129:pages.c       ****                 sensor.ActualDistance % US_CONVERSION);
 130:pages.c       ****         break;
 131:pages.c       ****         
 132:pages.c       ****         default:
 133:pages.c       ****         //Default message if a key has no assigned action
 134:pages.c       ****         sprintf(Transmitbuffer, "Not implemented\r\n");
 135:pages.c       ****         break;
 136:pages.c       ****     }
 137:pages.c       ****     //Output over UART
 138:pages.c       ****     UART_PutString(Transmitbuffer);
 139:pages.c       ****     //Output to display, page 2 has its special output
 140:pages.c       ****     if(gPage != 2){
 141:pages.c       ****         display_clear();
 142:pages.c       ****         gfx_setCursor(0, DISPLAY_OFFSET);
 143:pages.c       ****         gfx_println(Transmitbuffer);
 144:pages.c       ****         display_update();
 145:pages.c       ****     }
 146:pages.c       **** }
 147:pages.c       **** 
 148:pages.c       **** /* Updates the servo position based on har far the switch is pressed */
 149:pages.c       **** void updateServo(void){
  60              		.loc 1 149 0
  61              		.cfi_startproc
  62              		@ args = 0, pretend = 0, frame = 0
  63              		@ frame_needed = 0, uses_anonymous_args = 0
  64 0000 F8B5     		push	{r3, r4, r5, r6, r7, lr}
  65              		.cfi_def_cfa_offset 24
  66              		.cfi_offset 3, -24
  67              		.cfi_offset 4, -20
  68              		.cfi_offset 5, -16
  69              		.cfi_offset 6, -12
  70              		.cfi_offset 7, -8
  71              		.cfi_offset 14, -4
 150:pages.c       ****     //Copy struct values to local variables for readability
 151:pages.c       ****     uint8 row = sensor.position[ROW_INDEX];
  72              		.loc 1 151 0
  73 0002 3849     		ldr	r1, .L11
  74 0004 8B78     		ldrb	r3, [r1, #2]	@ zero_extendqisi2
  75 0006 DCB2     		uxtb	r4, r3
  76              	.LVL1:
 152:pages.c       ****     uint8 col = sensor.position[COLUMN_INDEX];
ARM GAS  C:\Users\z004e6he\AppData\Local\Temp\cc50y5UT.s 			page 5


  77              		.loc 1 152 0
  78 0008 CA78     		ldrb	r2, [r1, #3]	@ zero_extendqisi2
  79 000a D2B2     		uxtb	r2, r2
  80              	.LVL2:
 153:pages.c       ****     uint16 val = sensor.HallEffect;
  81              		.loc 1 153 0
  82 000c 0988     		ldrh	r1, [r1]
  83 000e 89B2     		uxth	r1, r1
  84              	.LVL3:
 154:pages.c       ****     
 155:pages.c       ****     #ifdef CALIBRATE_SWITCHES
 156:pages.c       ****     //Clamp the hall effect value just in case
 157:pages.c       ****     if(val > matrix[row][col].max){
  85              		.loc 1 157 0
  86 0010 02EB4200 		add	r0, r2, r2, lsl #1
  87 0014 8300     		lsls	r3, r0, #2
  88 0016 04EB4405 		add	r5, r4, r4, lsl #1
  89 001a 2801     		lsls	r0, r5, #4
  90 001c 0546     		mov	r5, r0
  91 001e 1844     		add	r0, r0, r3
  92 0020 314B     		ldr	r3, .L11+4
  93 0022 1844     		add	r0, r0, r3
  94 0024 0389     		ldrh	r3, [r0, #8]
  95 0026 9BB2     		uxth	r3, r3
  96 0028 9942     		cmp	r1, r3
  97 002a 09D9     		bls	.L6
 158:pages.c       ****         val = matrix[row][col].max;
  98              		.loc 1 158 0
  99 002c 02EB4203 		add	r3, r2, r2, lsl #1
 100 0030 9900     		lsls	r1, r3, #2
 101              	.LVL4:
 102 0032 2B46     		mov	r3, r5
 103 0034 0B44     		add	r3, r3, r1
 104 0036 2C49     		ldr	r1, .L11+4
 105 0038 0B44     		add	r3, r3, r1
 106 003a 1989     		ldrh	r1, [r3, #8]
 107 003c 89B2     		uxth	r1, r1
 108              	.LVL5:
 109 003e 16E0     		b	.L7
 110              	.L6:
 159:pages.c       ****     }else if(val < matrix[row][col].min){
 111              		.loc 1 159 0
 112 0040 02EB4203 		add	r3, r2, r2, lsl #1
 113 0044 9800     		lsls	r0, r3, #2
 114 0046 04EB4405 		add	r5, r4, r4, lsl #1
 115 004a 2B01     		lsls	r3, r5, #4
 116 004c 1D46     		mov	r5, r3
 117 004e 0344     		add	r3, r3, r0
 118 0050 2548     		ldr	r0, .L11+4
 119 0052 0344     		add	r3, r3, r0
 120 0054 5B89     		ldrh	r3, [r3, #10]
 121 0056 9BB2     		uxth	r3, r3
 122 0058 9942     		cmp	r1, r3
 123 005a 08D2     		bcs	.L7
 160:pages.c       ****         val = matrix[row][col].min;
 124              		.loc 1 160 0
 125 005c 02EB4203 		add	r3, r2, r2, lsl #1
ARM GAS  C:\Users\z004e6he\AppData\Local\Temp\cc50y5UT.s 			page 6


 126 0060 9900     		lsls	r1, r3, #2
 127              	.LVL6:
 128 0062 2B46     		mov	r3, r5
 129 0064 0B44     		add	r3, r3, r1
 130 0066 2049     		ldr	r1, .L11+4
 131 0068 0B44     		add	r3, r3, r1
 132 006a 5989     		ldrh	r1, [r3, #10]
 133 006c 89B2     		uxth	r1, r1
 134              	.LVL7:
 135              	.L7:
 161:pages.c       ****     }
 162:pages.c       ****     
 163:pages.c       ****     //Calculate the servo position
 164:pages.c       ****     servoPosition = (((val - matrix[row][col].min) * SERVO_RANGE) / 
 136              		.loc 1 164 0
 137 006e 1E4D     		ldr	r5, .L11+4
 138 0070 4FEA420E 		lsl	lr, r2, #1
 139 0074 0EEB0200 		add	r0, lr, r2
 140 0078 8300     		lsls	r3, r0, #2
 141 007a 6700     		lsls	r7, r4, #1
 142 007c 3E19     		adds	r6, r7, r4
 143 007e 3001     		lsls	r0, r6, #4
 144 0080 1844     		add	r0, r0, r3
 145 0082 2844     		add	r0, r0, r5
 146 0084 4389     		ldrh	r3, [r0, #10]
 147 0086 9BB2     		uxth	r3, r3
 148 0088 C91A     		subs	r1, r1, r3
 149              	.LVL8:
 150 008a 4FF47A76 		mov	r6, #1000
 151 008e 06FB01F1 		mul	r1, r6, r1
 152 0092 A1F5FA61 		sub	r1, r1, #2000
 165:pages.c       ****                       (matrix[row][col].max - matrix[row][col].min)) + SERVO_MIN_VALUE;
 153              		.loc 1 165 0
 154 0096 0389     		ldrh	r3, [r0, #8]
 155 0098 98B2     		uxth	r0, r3
 156 009a 7244     		add	r2, r2, lr
 157              	.LVL9:
 158 009c 9600     		lsls	r6, r2, #2
 159 009e 3B19     		adds	r3, r7, r4
 160 00a0 1A01     		lsls	r2, r3, #4
 161 00a2 3244     		add	r2, r2, r6
 162 00a4 2A44     		add	r2, r2, r5
 163 00a6 5389     		ldrh	r3, [r2, #10]
 164 00a8 9BB2     		uxth	r3, r3
 165 00aa C31A     		subs	r3, r0, r3
 164:pages.c       ****                       (matrix[row][col].max - matrix[row][col].min)) + SERVO_MIN_VALUE;
 166              		.loc 1 164 0
 167 00ac 91FBF3F3 		sdiv	r3, r1, r3
 168 00b0 03F57A73 		add	r3, r3, #1000
 169 00b4 9BB2     		uxth	r3, r3
 170 00b6 0D4A     		ldr	r2, .L11+8
 171 00b8 1380     		strh	r3, [r2]	@ movhi
 166:pages.c       ****     #else
 167:pages.c       ****     //Clamp the hall effect value just in case
 168:pages.c       ****     if(val > (SWITCH_RANGE + CONVERSION_OFFSET)){
 169:pages.c       ****         val = SWITCH_RANGE + CONVERSION_OFFSET;
 170:pages.c       ****     }else if(val < CONVERSION_OFFSET){
ARM GAS  C:\Users\z004e6he\AppData\Local\Temp\cc50y5UT.s 			page 7


 171:pages.c       ****         val = CONVERSION_OFFSET;
 172:pages.c       ****     }
 173:pages.c       ****     
 174:pages.c       ****     //Calculate the servo position
 175:pages.c       ****     servoPosition = (((val - CONVERSION_OFFSET) * SERVO_RANGE) / SWITCH_RANGE) + SERVO_MIN_VALUE;
 176:pages.c       ****     #endif
 177:pages.c       ****     
 178:pages.c       ****     //Clamp the servo position to make sure it stays in range
 179:pages.c       ****     if(servoPosition > SERVO_MAX_VALUE){
 172              		.loc 1 179 0
 173 00ba B3F5FA6F 		cmp	r3, #2000
 174 00be 04D9     		bls	.L8
 180:pages.c       ****         servoPosition = SERVO_MAX_VALUE;
 175              		.loc 1 180 0
 176 00c0 4FF4FA62 		mov	r2, #2000
 177 00c4 094B     		ldr	r3, .L11+8
 178 00c6 1A80     		strh	r2, [r3]	@ movhi
 179 00c8 06E0     		b	.L9
 180              	.L8:
 181:pages.c       ****     }else if(servoPosition < SERVO_MIN_VALUE){
 181              		.loc 1 181 0
 182 00ca B3F57A7F 		cmp	r3, #1000
 183 00ce 03D2     		bcs	.L9
 182:pages.c       ****         servoPosition = SERVO_MIN_VALUE;
 184              		.loc 1 182 0
 185 00d0 4FF47A72 		mov	r2, #1000
 186 00d4 054B     		ldr	r3, .L11+8
 187 00d6 1A80     		strh	r2, [r3]	@ movhi
 188              	.L9:
 183:pages.c       ****     }
 184:pages.c       ****     
 185:pages.c       ****     //If SMOOTH_SERVO is defined in config.h, the servo output will be slower but smoother
 186:pages.c       ****     #ifdef SMOOTH_SERVO
 187:pages.c       ****     //Increase the PWM value incrementally when the desired value is larger than the current value
 188:pages.c       ****     if(currentServoVal < (servoPosition - STEP_SIZE)){
 189:pages.c       ****         //Increment the servo value
 190:pages.c       ****         currentServoVal += STEP_SIZE;
 191:pages.c       ****         //Write the value to the PWM
 192:pages.c       ****         PWM_WriteCompare(currentServoVal);
 193:pages.c       ****     //Decrease the PWM value if it is smaller than the current value
 194:pages.c       ****     }else if(currentServoVal > (servoPosition + STEP_SIZE)){
 195:pages.c       ****         //Decrement the servo value
 196:pages.c       ****         currentServoVal -= STEP_SIZE;
 197:pages.c       ****         //Write the value to the PWM
 198:pages.c       ****         PWM_WriteCompare(currentServoVal);
 199:pages.c       ****     }
 200:pages.c       ****     #else
 201:pages.c       ****     //Write the pwm value directly
 202:pages.c       ****     PWM_WriteCompare(servoPosition);
 189              		.loc 1 202 0
 190 00d8 044B     		ldr	r3, .L11+8
 191 00da 1888     		ldrh	r0, [r3]
 192 00dc FFF7FEFF 		bl	PWM_WriteCompare
 193              	.LVL10:
 194 00e0 F8BD     		pop	{r3, r4, r5, r6, r7, pc}
 195              	.LVL11:
 196              	.L12:
ARM GAS  C:\Users\z004e6he\AppData\Local\Temp\cc50y5UT.s 			page 8


 197 00e2 00BF     		.align	2
 198              	.L11:
 199 00e4 00000000 		.word	sensor
 200 00e8 00000000 		.word	matrix
 201 00ec 00000000 		.word	.LANCHOR1
 202              		.cfi_endproc
 203              	.LFE66:
 204              		.size	updateServo, .-updateServo
 205              		.global	__aeabi_i2d
 206              		.global	__aeabi_dadd
 207              		.global	__aeabi_d2uiz
 208              		.section	.text.updatePage,"ax",%progbits
 209              		.align	2
 210              		.global	updatePage
 211              		.thumb
 212              		.thumb_func
 213              		.type	updatePage, %function
 214              	updatePage:
 215              	.LFB65:
  46:pages.c       ****     uint8 row = sensor.position[ROW_INDEX];
 216              		.loc 1 46 0
 217              		.cfi_startproc
 218              		@ args = 0, pretend = 0, frame = 0
 219              		@ frame_needed = 0, uses_anonymous_args = 0
 220              	.LVL12:
 221 0000 F0B5     		push	{r4, r5, r6, r7, lr}
 222              		.cfi_def_cfa_offset 20
 223              		.cfi_offset 4, -20
 224              		.cfi_offset 5, -16
 225              		.cfi_offset 6, -12
 226              		.cfi_offset 7, -8
 227              		.cfi_offset 14, -4
 228 0002 85B0     		sub	sp, sp, #20
 229              		.cfi_def_cfa_offset 40
  47:pages.c       ****     uint8 col = sensor.position[COLUMN_INDEX];
 230              		.loc 1 47 0
 231 0004 A04B     		ldr	r3, .L34+8
 232 0006 9A78     		ldrb	r2, [r3, #2]	@ zero_extendqisi2
 233              	.LVL13:
  48:pages.c       ****     int16 barWidth;
 234              		.loc 1 48 0
 235 0008 DB78     		ldrb	r3, [r3, #3]	@ zero_extendqisi2
 236 000a DCB2     		uxtb	r4, r3
 237              	.LVL14:
  50:pages.c       ****         case 0: //Dashboard
 238              		.loc 1 50 0
 239 000c 0B28     		cmp	r0, #11
 240 000e 00F26181 		bhi	.L14
 241 0012 DFE810F0 		tbh	[pc, r0, lsl #1]
 242              	.L16:
 243 0016 0C00     		.2byte	(.L15-.L16)/2
 244 0018 3400     		.2byte	(.L17-.L16)/2
 245 001a 3C00     		.2byte	(.L18-.L16)/2
 246 001c 8200     		.2byte	(.L19-.L16)/2
 247 001e 8E00     		.2byte	(.L20-.L16)/2
 248 0020 A400     		.2byte	(.L21-.L16)/2
 249 0022 C800     		.2byte	(.L22-.L16)/2
ARM GAS  C:\Users\z004e6he\AppData\Local\Temp\cc50y5UT.s 			page 9


 250 0024 EB00     		.2byte	(.L23-.L16)/2
 251 0026 F300     		.2byte	(.L24-.L16)/2
 252 0028 FA00     		.2byte	(.L25-.L16)/2
 253 002a 0D01     		.2byte	(.L26-.L16)/2
 254 002c 2001     		.2byte	(.L27-.L16)/2
 255              		.p2align 1
 256              	.L15:
  54:pages.c       ****                 sensor.UltrasoundDistance / US_CONVERSION, sensor.UltrasoundDistance % US_CONVERSIO
 257              		.loc 1 54 0
 258 002e 9649     		ldr	r1, .L34+8
 259 0030 0A88     		ldrh	r2, [r1]
 260              	.LVL15:
 261 0032 8B88     		ldrh	r3, [r1, #4]
 262 0034 9BB2     		uxth	r3, r3
 263 0036 8888     		ldrh	r0, [r1, #4]
 264              	.LVL16:
 265 0038 80B2     		uxth	r0, r0
  55:pages.c       ****         break;
 266              		.loc 1 55 0
 267 003a CC68     		ldr	r4, [r1, #12]
 268              	.LVL17:
 269 003c CD68     		ldr	r5, [r1, #12]
  53:pages.c       ****                 sensor.HallEffect, sensor.Temperature / TEMP_FACTOR, sensor.Temperature % TEMP_FACT
 270              		.loc 1 53 0
 271 003e 9349     		ldr	r1, .L34+12
 272 0040 A1FB0363 		umull	r6, r3, r1, r3
 273 0044 924F     		ldr	r7, .L34+16
 274 0046 A7FB05E6 		umull	lr, r6, r7, r5
 275 004a 760B     		lsrs	r6, r6, #13
 276 004c 42F2107E 		movw	lr, #10000
 277 0050 0EFB1655 		mls	r5, lr, r6, r5
 278 0054 0295     		str	r5, [sp, #8]
 279 0056 A7FB0454 		umull	r5, r4, r7, r4
 280 005a 640B     		lsrs	r4, r4, #13
 281 005c 0194     		str	r4, [sp, #4]
 282 005e A1FB0041 		umull	r4, r1, r1, r0
 283 0062 C908     		lsrs	r1, r1, #3
 284 0064 01EB8101 		add	r1, r1, r1, lsl #2
 285 0068 4C00     		lsls	r4, r1, #1
 286 006a 001B     		subs	r0, r0, r4
 287 006c 80B2     		uxth	r0, r0
 288 006e 0090     		str	r0, [sp]
 289 0070 DB08     		lsrs	r3, r3, #3
 290 0072 92B2     		uxth	r2, r2
 291 0074 8749     		ldr	r1, .L34+20
 292 0076 8848     		ldr	r0, .L34+24
 293 0078 FFF7FEFF 		bl	sprintf
 294              	.LVL18:
  56:pages.c       ****         
 295              		.loc 1 56 0
 296 007c 33E1     		b	.L28
 297              	.LVL19:
 298              	.L17:
  59:pages.c       ****         break;
 299              		.loc 1 59 0
 300 007e 824B     		ldr	r3, .L34+8
 301 0080 1A88     		ldrh	r2, [r3]
ARM GAS  C:\Users\z004e6he\AppData\Local\Temp\cc50y5UT.s 			page 10


 302              	.LVL20:
 303 0082 92B2     		uxth	r2, r2
 304 0084 8549     		ldr	r1, .L34+28
 305 0086 8448     		ldr	r0, .L34+24
 306              	.LVL21:
 307 0088 FFF7FEFF 		bl	sprintf
 308              	.LVL22:
  60:pages.c       ****         
 309              		.loc 1 60 0
 310 008c 2BE1     		b	.L28
 311              	.LVL23:
 312              	.L18:
 313 008e D5B2     		uxtb	r5, r2
  63:pages.c       ****         
 314              		.loc 1 63 0
 315 0090 7D4F     		ldr	r7, .L34+8
 316 0092 3A88     		ldrh	r2, [r7]
 317              	.LVL24:
 318 0094 92B2     		uxth	r2, r2
 319 0096 8149     		ldr	r1, .L34+28
 320 0098 7F48     		ldr	r0, .L34+24
 321              	.LVL25:
 322 009a FFF7FEFF 		bl	sprintf
 323              	.LVL26:
  65:pages.c       ****         #ifdef CALIBRATE_SWITCHES
 324              		.loc 1 65 0
 325 009e FFF7FEFF 		bl	display_clear
 326              	.LVL27:
  68:pages.c       ****         #else
 327              		.loc 1 68 0
 328 00a2 DFF82CE2 		ldr	lr, .L34+80
 329 00a6 6000     		lsls	r0, r4, #1
 330 00a8 0219     		adds	r2, r0, r4
 331 00aa 9300     		lsls	r3, r2, #2
 332 00ac 6A00     		lsls	r2, r5, #1
 333 00ae 5619     		adds	r6, r2, r5
 334 00b0 3101     		lsls	r1, r6, #4
 335 00b2 1944     		add	r1, r1, r3
 336 00b4 7144     		add	r1, r1, lr
 337 00b6 0E89     		ldrh	r6, [r1, #8]
 338 00b8 B6B2     		uxth	r6, r6
 339 00ba 4989     		ldrh	r1, [r1, #10]
 340 00bc 89B2     		uxth	r1, r1
 341 00be 711A     		subs	r1, r6, r1
 342 00c0 4FF44853 		mov	r3, #12800
 343 00c4 93FBF1F6 		sdiv	r6, r3, r1
 344 00c8 3B88     		ldrh	r3, [r7]
 345 00ca 99B2     		uxth	r1, r3
 346 00cc 0319     		adds	r3, r0, r4
 347 00ce 9C00     		lsls	r4, r3, #2
 348              	.LVL28:
 349 00d0 2A44     		add	r2, r2, r5
 350 00d2 1001     		lsls	r0, r2, #4
 351 00d4 2044     		add	r0, r0, r4
 352 00d6 7044     		add	r0, r0, lr
 353 00d8 4389     		ldrh	r3, [r0, #10]
 354 00da 9BB2     		uxth	r3, r3
ARM GAS  C:\Users\z004e6he\AppData\Local\Temp\cc50y5UT.s 			page 11


 355 00dc CB1A     		subs	r3, r1, r3
 356 00de 03FB06F3 		mul	r3, r3, r6
 357 00e2 1BB2     		sxth	r3, r3
 358              	.LVL29:
  73:pages.c       ****             barWidth = DISPLAY_WIDTH * 100;
 359              		.loc 1 73 0
 360 00e4 B3F5485F 		cmp	r3, #12800
 361 00e8 02DC     		bgt	.L31
  75:pages.c       ****             barWidth = 0;
 362              		.loc 1 75 0
 363 00ea 002B     		cmp	r3, #0
 364 00ec 04DA     		bge	.L29
 365 00ee 02E0     		b	.L32
 366              	.L31:
  74:pages.c       ****         }else if(barWidth < 0){
 367              		.loc 1 74 0
 368 00f0 4FF44853 		mov	r3, #12800
 369              	.LVL30:
 370 00f4 00E0     		b	.L29
 371              	.LVL31:
 372              	.L32:
  76:pages.c       ****         }
 373              		.loc 1 76 0
 374 00f6 0023     		movs	r3, #0
 375              	.LVL32:
 376              	.L29:
  79:pages.c       ****         display_update();
 377              		.loc 1 79 0
 378 00f8 694A     		ldr	r2, .L34+32
 379 00fa 82FB0312 		smull	r1, r2, r2, r3
 380 00fe DB17     		asrs	r3, r3, #31
 381              	.LVL33:
 382 0100 C3EB6212 		rsb	r2, r3, r2, asr #5
 383 0104 0123     		movs	r3, #1
 384 0106 0093     		str	r3, [sp]
 385 0108 1823     		movs	r3, #24
 386 010a 12B2     		sxth	r2, r2
 387 010c 2821     		movs	r1, #40
 388 010e 0020     		movs	r0, #0
 389 0110 FFF7FEFF 		bl	gfx_fillRect
 390              	.LVL34:
  80:pages.c       ****         break;
 391              		.loc 1 80 0
 392 0114 FFF7FEFF 		bl	display_update
 393              	.LVL35:
  81:pages.c       ****         
 394              		.loc 1 81 0
 395 0118 E5E0     		b	.L28
 396              	.LVL36:
 397              	.L19:
  85:pages.c       ****         sprintf(Transmitbuffer, "Hall Effect: %i\r\nServo value: %i\r\n", sensor.HallEffect, servoP
 398              		.loc 1 85 0
 399 011a FFF7FEFF 		bl	updateServo
 400              	.LVL37:
  86:pages.c       ****         break;
 401              		.loc 1 86 0
 402 011e 5A4B     		ldr	r3, .L34+8
ARM GAS  C:\Users\z004e6he\AppData\Local\Temp\cc50y5UT.s 			page 12


 403 0120 1A88     		ldrh	r2, [r3]
 404 0122 604B     		ldr	r3, .L34+36
 405 0124 1B88     		ldrh	r3, [r3]
 406 0126 92B2     		uxth	r2, r2
 407 0128 5F49     		ldr	r1, .L34+40
 408 012a 5B48     		ldr	r0, .L34+24
 409 012c FFF7FEFF 		bl	sprintf
 410              	.LVL38:
  87:pages.c       ****         
 411              		.loc 1 87 0
 412 0130 D9E0     		b	.L28
 413              	.LVL39:
 414              	.L20:
  90:pages.c       ****                 sensor.Temperature % TEMP_FACTOR);
 415              		.loc 1 90 0
 416 0132 554B     		ldr	r3, .L34+8
 417 0134 9A88     		ldrh	r2, [r3, #4]
 418              	.LVL40:
 419 0136 92B2     		uxth	r2, r2
  91:pages.c       ****         break;
 420              		.loc 1 91 0
 421 0138 9B88     		ldrh	r3, [r3, #4]
 422 013a 9BB2     		uxth	r3, r3
  90:pages.c       ****                 sensor.Temperature % TEMP_FACTOR);
 423              		.loc 1 90 0
 424 013c 5348     		ldr	r0, .L34+12
 425              	.LVL41:
 426 013e A0FB0341 		umull	r4, r1, r0, r3
 427              	.LVL42:
 428 0142 C908     		lsrs	r1, r1, #3
 429 0144 01EB8101 		add	r1, r1, r1, lsl #2
 430 0148 4C00     		lsls	r4, r1, #1
 431 014a 1B1B     		subs	r3, r3, r4
 432 014c A0FB0212 		umull	r1, r2, r0, r2
 433 0150 9BB2     		uxth	r3, r3
 434 0152 D208     		lsrs	r2, r2, #3
 435 0154 5549     		ldr	r1, .L34+44
 436 0156 5048     		ldr	r0, .L34+24
 437 0158 FFF7FEFF 		bl	sprintf
 438              	.LVL43:
  92:pages.c       ****         
 439              		.loc 1 92 0
 440 015c C3E0     		b	.L28
 441              	.LVL44:
 442              	.L21:
  95:pages.c       ****         sprintf(Transmitbuffer, "Temperature: %i.%i F\r\n", sensor.Temperature / TEMP_FACTOR, 
 443              		.loc 1 95 0
 444 015e 4A49     		ldr	r1, .L34+8
 445 0160 8B88     		ldrh	r3, [r1, #4]
 446 0162 9BB2     		uxth	r3, r3
 447 0164 03EBC303 		add	r3, r3, r3, lsl #3
 448 0168 514A     		ldr	r2, .L34+48
 449              	.LVL45:
 450 016a 82FB0302 		smull	r0, r2, r2, r3
 451              	.LVL46:
 452 016e DB17     		asrs	r3, r3, #31
 453 0170 C3EB6203 		rsb	r3, r3, r2, asr #1
ARM GAS  C:\Users\z004e6he\AppData\Local\Temp\cc50y5UT.s 			page 13


 454 0174 03F5A073 		add	r3, r3, #320
 455 0178 9BB2     		uxth	r3, r3
 456 017a 8B80     		strh	r3, [r1, #4]	@ movhi
  96:pages.c       ****                 sensor.Temperature % TEMP_FACTOR);
 457              		.loc 1 96 0
 458 017c 8A88     		ldrh	r2, [r1, #4]
 459 017e 92B2     		uxth	r2, r2
  97:pages.c       ****         break;
 460              		.loc 1 97 0
 461 0180 8B88     		ldrh	r3, [r1, #4]
 462 0182 9BB2     		uxth	r3, r3
  96:pages.c       ****                 sensor.Temperature % TEMP_FACTOR);
 463              		.loc 1 96 0
 464 0184 4148     		ldr	r0, .L34+12
 465 0186 A0FB0341 		umull	r4, r1, r0, r3
 466              	.LVL47:
 467 018a C908     		lsrs	r1, r1, #3
 468 018c 01EB8101 		add	r1, r1, r1, lsl #2
 469 0190 4C00     		lsls	r4, r1, #1
 470 0192 1B1B     		subs	r3, r3, r4
 471 0194 A0FB0212 		umull	r1, r2, r0, r2
 472 0198 9BB2     		uxth	r3, r3
 473 019a D208     		lsrs	r2, r2, #3
 474 019c 4549     		ldr	r1, .L34+52
 475 019e 3E48     		ldr	r0, .L34+24
 476 01a0 FFF7FEFF 		bl	sprintf
 477              	.LVL48:
  98:pages.c       ****         
 478              		.loc 1 98 0
 479 01a4 9FE0     		b	.L28
 480              	.LVL49:
 481              	.L22:
 101:pages.c       ****         sprintf(Transmitbuffer, "Temperature: %i.%i K\r\n", sensor.Temperature / TEMP_FACTOR,
 482              		.loc 1 101 0
 483 01a6 384C     		ldr	r4, .L34+8
 484              	.LVL50:
 485 01a8 A088     		ldrh	r0, [r4, #4]
 486              	.LVL51:
 487 01aa 80B2     		uxth	r0, r0
 488 01ac FFF7FEFF 		bl	__aeabi_i2d
 489              	.LVL52:
 490 01b0 33A3     		adr	r3, .L34
 491 01b2 D3E90023 		ldrd	r2, [r3]
 492 01b6 FFF7FEFF 		bl	__aeabi_dadd
 493              	.LVL53:
 494 01ba FFF7FEFF 		bl	__aeabi_d2uiz
 495              	.LVL54:
 496 01be 80B2     		uxth	r0, r0
 497 01c0 A080     		strh	r0, [r4, #4]	@ movhi
 102:pages.c       ****                 sensor.Temperature % TEMP_FACTOR);
 498              		.loc 1 102 0
 499 01c2 A288     		ldrh	r2, [r4, #4]
 500 01c4 92B2     		uxth	r2, r2
 103:pages.c       ****         break;
 501              		.loc 1 103 0
 502 01c6 A388     		ldrh	r3, [r4, #4]
 503 01c8 9BB2     		uxth	r3, r3
ARM GAS  C:\Users\z004e6he\AppData\Local\Temp\cc50y5UT.s 			page 14


 102:pages.c       ****                 sensor.Temperature % TEMP_FACTOR);
 504              		.loc 1 102 0
 505 01ca 3048     		ldr	r0, .L34+12
 506 01cc A0FB0341 		umull	r4, r1, r0, r3
 507 01d0 C908     		lsrs	r1, r1, #3
 508 01d2 01EB8101 		add	r1, r1, r1, lsl #2
 509 01d6 4C00     		lsls	r4, r1, #1
 510 01d8 1B1B     		subs	r3, r3, r4
 511 01da A0FB0212 		umull	r1, r2, r0, r2
 512 01de 9BB2     		uxth	r3, r3
 513 01e0 D208     		lsrs	r2, r2, #3
 514 01e2 3549     		ldr	r1, .L34+56
 515 01e4 2C48     		ldr	r0, .L34+24
 516 01e6 FFF7FEFF 		bl	sprintf
 517              	.LVL55:
 104:pages.c       ****         
 518              		.loc 1 104 0
 519 01ea 7CE0     		b	.L28
 520              	.LVL56:
 521              	.L23:
 107:pages.c       ****         break;
 522              		.loc 1 107 0
 523 01ec 264B     		ldr	r3, .L34+8
 524 01ee 9A88     		ldrh	r2, [r3, #4]
 525              	.LVL57:
 526 01f0 92B2     		uxth	r2, r2
 527 01f2 3249     		ldr	r1, .L34+60
 528 01f4 2848     		ldr	r0, .L34+24
 529              	.LVL58:
 530 01f6 FFF7FEFF 		bl	sprintf
 531              	.LVL59:
 108:pages.c       ****         
 532              		.loc 1 108 0
 533 01fa 74E0     		b	.L28
 534              	.LVL60:
 535              	.L24:
 111:pages.c       ****         break;
 536              		.loc 1 111 0
 537 01fc 224B     		ldr	r3, .L34+8
 538 01fe 9A68     		ldr	r2, [r3, #8]
 539              	.LVL61:
 540 0200 2F49     		ldr	r1, .L34+64
 541 0202 2548     		ldr	r0, .L34+24
 542              	.LVL62:
 543 0204 FFF7FEFF 		bl	sprintf
 544              	.LVL63:
 112:pages.c       ****         
 545              		.loc 1 112 0
 546 0208 6DE0     		b	.L28
 547              	.LVL64:
 548              	.L25:
 115:pages.c       ****                 sensor.UltrasoundDistance % US_CONVERSION);
 549              		.loc 1 115 0
 550 020a 1F4B     		ldr	r3, .L34+8
 551 020c DA68     		ldr	r2, [r3, #12]
 552              	.LVL65:
 116:pages.c       ****         break;
ARM GAS  C:\Users\z004e6he\AppData\Local\Temp\cc50y5UT.s 			page 15


 553              		.loc 1 116 0
 554 020e DB68     		ldr	r3, [r3, #12]
 115:pages.c       ****                 sensor.UltrasoundDistance % US_CONVERSION);
 555              		.loc 1 115 0
 556 0210 1F48     		ldr	r0, .L34+16
 557              	.LVL66:
 558 0212 A0FB0341 		umull	r4, r1, r0, r3
 559              	.LVL67:
 560 0216 490B     		lsrs	r1, r1, #13
 561 0218 A0FB0202 		umull	r0, r2, r0, r2
 562 021c 42F21070 		movw	r0, #10000
 563 0220 00FB1133 		mls	r3, r0, r1, r3
 564 0224 520B     		lsrs	r2, r2, #13
 565 0226 2749     		ldr	r1, .L34+68
 566 0228 1B48     		ldr	r0, .L34+24
 567 022a FFF7FEFF 		bl	sprintf
 568              	.LVL68:
 117:pages.c       ****         
 569              		.loc 1 117 0
 570 022e 5AE0     		b	.L28
 571              	.LVL69:
 572              	.L26:
 120:pages.c       ****                 sensor.ActualDistance % US_CONVERSION);
 573              		.loc 1 120 0
 574 0230 154B     		ldr	r3, .L34+8
 575 0232 1A69     		ldr	r2, [r3, #16]
 576              	.LVL70:
 121:pages.c       ****         break;
 577              		.loc 1 121 0
 578 0234 1B69     		ldr	r3, [r3, #16]
 120:pages.c       ****                 sensor.ActualDistance % US_CONVERSION);
 579              		.loc 1 120 0
 580 0236 1648     		ldr	r0, .L34+16
 581              	.LVL71:
 582 0238 A0FB0341 		umull	r4, r1, r0, r3
 583              	.LVL72:
 584 023c 490B     		lsrs	r1, r1, #13
 585 023e A0FB0202 		umull	r0, r2, r0, r2
 586 0242 42F21070 		movw	r0, #10000
 587 0246 00FB1133 		mls	r3, r0, r1, r3
 588 024a 520B     		lsrs	r2, r2, #13
 589 024c 1E49     		ldr	r1, .L34+72
 590 024e 1248     		ldr	r0, .L34+24
 591 0250 FFF7FEFF 		bl	sprintf
 592              	.LVL73:
 122:pages.c       ****         
 593              		.loc 1 122 0
 594 0254 47E0     		b	.L28
 595              	.LVL74:
 596              	.L27:
 128:pages.c       ****                 sensor.ActualDistance % US_CONVERSION);
 597              		.loc 1 128 0
 598 0256 0C4B     		ldr	r3, .L34+8
 599 0258 1A69     		ldr	r2, [r3, #16]
 600              	.LVL75:
 129:pages.c       ****         break;
 601              		.loc 1 129 0
ARM GAS  C:\Users\z004e6he\AppData\Local\Temp\cc50y5UT.s 			page 16


 602 025a 1B69     		ldr	r3, [r3, #16]
 128:pages.c       ****                 sensor.ActualDistance % US_CONVERSION);
 603              		.loc 1 128 0
 604 025c 0C48     		ldr	r0, .L34+16
 605              	.LVL76:
 606 025e A0FB0341 		umull	r4, r1, r0, r3
 607              	.LVL77:
 608 0262 490B     		lsrs	r1, r1, #13
 609 0264 A0FB0202 		umull	r0, r2, r0, r2
 610 0268 42F21070 		movw	r0, #10000
 611 026c 00FB1133 		mls	r3, r0, r1, r3
 612 0270 520B     		lsrs	r2, r2, #13
 613 0272 1649     		ldr	r1, .L34+76
 614 0274 0848     		ldr	r0, .L34+24
 615 0276 FFF7FEFF 		bl	sprintf
 616              	.LVL78:
 130:pages.c       ****         
 617              		.loc 1 130 0
 618 027a 34E0     		b	.L28
 619              	.L35:
 620 027c AFF30080 		.align	3
 621              	.L34:
 622 0280 00000000 		.word	0
 623 0284 0057A540 		.word	1084577536
 624 0288 00000000 		.word	sensor
 625 028c CDCCCCCC 		.word	-858993459
 626 0290 5917B7D1 		.word	-776530087
 627 0294 00000000 		.word	.LC0
 628 0298 00000000 		.word	Transmitbuffer
 629 029c 44000000 		.word	.LC1
 630 02a0 1F85EB51 		.word	1374389535
 631 02a4 00000000 		.word	.LANCHOR1
 632 02a8 58000000 		.word	.LC2
 633 02ac 7C000000 		.word	.LC3
 634 02b0 67666666 		.word	1717986919
 635 02b4 94000000 		.word	.LC4
 636 02b8 AC000000 		.word	.LC5
 637 02bc C4000000 		.word	.LC6
 638 02c0 DC000000 		.word	.LC7
 639 02c4 F8000000 		.word	.LC8
 640 02c8 1C010000 		.word	.LC9
 641 02cc 3C010000 		.word	.LC10
 642 02d0 00000000 		.word	matrix
 643              	.LVL79:
 644              	.L14:
 134:pages.c       ****         break;
 645              		.loc 1 134 0
 646 02d4 0E4D     		ldr	r5, .L36
 647 02d6 0F4C     		ldr	r4, .L36+4
 648              	.LVL80:
 649 02d8 0FCC     		ldmia	r4!, {r0, r1, r2, r3}
 650              	.LVL81:
 651 02da 2860     		str	r0, [r5]	@ unaligned
 652 02dc 6960     		str	r1, [r5, #4]	@ unaligned
 653 02de AA60     		str	r2, [r5, #8]	@ unaligned
 654 02e0 EB60     		str	r3, [r5, #12]	@ unaligned
 655 02e2 2388     		ldrh	r3, [r4]	@ unaligned
ARM GAS  C:\Users\z004e6he\AppData\Local\Temp\cc50y5UT.s 			page 17


 656 02e4 2B82     		strh	r3, [r5, #16]	@ unaligned
 657              	.L28:
 138:pages.c       ****     //Output to display, page 2 has its special output
 658              		.loc 1 138 0
 659 02e6 0A48     		ldr	r0, .L36
 660 02e8 FFF7FEFF 		bl	UART_PutString
 661              	.LVL82:
 140:pages.c       ****         display_clear();
 662              		.loc 1 140 0
 663 02ec 0A4B     		ldr	r3, .L36+8
 664 02ee 1B78     		ldrb	r3, [r3]	@ zero_extendqisi2
 665 02f0 DBB2     		uxtb	r3, r3
 666 02f2 022B     		cmp	r3, #2
 667 02f4 0AD0     		beq	.L13
 141:pages.c       ****         gfx_setCursor(0, DISPLAY_OFFSET);
 668              		.loc 1 141 0
 669 02f6 FFF7FEFF 		bl	display_clear
 670              	.LVL83:
 142:pages.c       ****         gfx_println(Transmitbuffer);
 671              		.loc 1 142 0
 672 02fa 2821     		movs	r1, #40
 673 02fc 0020     		movs	r0, #0
 674 02fe FFF7FEFF 		bl	gfx_setCursor
 675              	.LVL84:
 143:pages.c       ****         display_update();
 676              		.loc 1 143 0
 677 0302 0348     		ldr	r0, .L36
 678 0304 FFF7FEFF 		bl	gfx_println
 679              	.LVL85:
 144:pages.c       ****     }
 680              		.loc 1 144 0
 681 0308 FFF7FEFF 		bl	display_update
 682              	.LVL86:
 683              	.L13:
 146:pages.c       **** 
 684              		.loc 1 146 0
 685 030c 05B0     		add	sp, sp, #20
 686              		.cfi_def_cfa_offset 20
 687              		@ sp needed
 688 030e F0BD     		pop	{r4, r5, r6, r7, pc}
 689              	.L37:
 690              		.align	2
 691              	.L36:
 692 0310 00000000 		.word	Transmitbuffer
 693 0314 5C010000 		.word	.LC11
 694 0318 00000000 		.word	.LANCHOR0
 695              		.cfi_endproc
 696              	.LFE65:
 697              		.size	updatePage, .-updatePage
 698              		.global	currentServoVal
 699              		.global	servoPosition
 700              		.comm	servoVal,2,2
 701              		.global	gPage
 702              		.comm	sensor,24,4
 703              		.comm	pinWriteArr,16,4
 704              		.comm	Transmitbuffer,64,4
 705              		.comm	action,1,1
ARM GAS  C:\Users\z004e6he\AppData\Local\Temp\cc50y5UT.s 			page 18


 706              		.comm	actionBuffer,16,4
 707              		.comm	matrix,192,4
 708              		.data
 709              		.align	1
 710              		.set	.LANCHOR1,. + 0
 711              		.type	servoPosition, %object
 712              		.size	servoPosition, 2
 713              	servoPosition:
 714 0000 D007     		.short	2000
 715              		.type	currentServoVal, %object
 716              		.size	currentServoVal, 2
 717              	currentServoVal:
 718 0002 D007     		.short	2000
 719              		.section	.rodata.str1.4,"aMS",%progbits,1
 720              		.align	2
 721              	.LC0:
 722 0000 48616C6C 		.ascii	"Hall Effect: %i,\015\012Temperature: %i.%i C,\015\012"
 722      20456666 
 722      6563743A 
 722      2025692C 
 722      0D0A5465 
 723 0029 556C7472 		.ascii	"Ultrasound: %lu.%lu cm\015\012\000"
 723      61736F75 
 723      6E643A20 
 723      256C752E 
 723      256C7520 
 724 0042 0000     		.space	2
 725              	.LC1:
 726 0044 48616C6C 		.ascii	"Hall Effect: %i\015\012\000"
 726      20456666 
 726      6563743A 
 726      2025690D 
 726      0A00
 727 0056 0000     		.space	2
 728              	.LC2:
 729 0058 48616C6C 		.ascii	"Hall Effect: %i\015\012Servo value: %i\015\012\000"
 729      20456666 
 729      6563743A 
 729      2025690D 
 729      0A536572 
 730 007b 00       		.space	1
 731              	.LC3:
 732 007c 54656D70 		.ascii	"Temperature: %i.%i C\015\012\000"
 732      65726174 
 732      7572653A 
 732      2025692E 
 732      25692043 
 733 0093 00       		.space	1
 734              	.LC4:
 735 0094 54656D70 		.ascii	"Temperature: %i.%i F\015\012\000"
 735      65726174 
 735      7572653A 
 735      2025692E 
 735      25692046 
 736 00ab 00       		.space	1
 737              	.LC5:
 738 00ac 54656D70 		.ascii	"Temperature: %i.%i K\015\012\000"
ARM GAS  C:\Users\z004e6he\AppData\Local\Temp\cc50y5UT.s 			page 19


 738      65726174 
 738      7572653A 
 738      2025692E 
 738      2569204B 
 739 00c3 00       		.space	1
 740              	.LC6:
 741 00c4 54656D70 		.ascii	"Temp Voltage: %i mV\015\012\000"
 741      20566F6C 
 741      74616765 
 741      3A202569 
 741      206D560D 
 742 00da 0000     		.space	2
 743              	.LC7:
 744 00dc 556C7472 		.ascii	"Ultrasound time: %lu us\015\012\000"
 744      61736F75 
 744      6E642074 
 744      696D653A 
 744      20256C75 
 745 00f6 0000     		.space	2
 746              	.LC8:
 747 00f8 556C7472 		.ascii	"Ultrasound distance: %lu.%lu cm\015\012\000"
 747      61736F75 
 747      6E642064 
 747      69737461 
 747      6E63653A 
 748 011a 0000     		.space	2
 749              	.LC9:
 750 011c 41637475 		.ascii	"Actual distance: %lu.%lu cm\015\012\000"
 750      616C2064 
 750      69737461 
 750      6E63653A 
 750      20256C75 
 751 013a 0000     		.space	2
 752              	.LC10:
 753 013c 41637475 		.ascii	"Actual distance: %lu.%lu in\015\012\000"
 753      616C2064 
 753      69737461 
 753      6E63653A 
 753      20256C75 
 754 015a 0000     		.space	2
 755              	.LC11:
 756 015c 4E6F7420 		.ascii	"Not implemented\015\012\000"
 756      696D706C 
 756      656D656E 
 756      7465640D 
 756      0A00
 757              		.bss
 758              		.set	.LANCHOR0,. + 0
 759              		.type	gPage, %object
 760              		.size	gPage, 1
 761              	gPage:
 762 0000 00       		.space	1
 763              		.text
 764              	.Letext0:
 765              		.file 2 "c:\\program files (x86)\\cypress\\psoc creator\\4.4\\psoc creator\\import\\gnu\\arm\\5.4.
 766              		.file 3 "c:\\program files (x86)\\cypress\\psoc creator\\4.4\\psoc creator\\import\\gnu\\arm\\5.4.
 767              		.file 4 "Generated_Source\\PSoC5/cytypes.h"
ARM GAS  C:\Users\z004e6he\AppData\Local\Temp\cc50y5UT.s 			page 20


 768              		.file 5 "HallEffect.h"
 769              		.file 6 "sensors.h"
 770              		.file 7 "Generated_Source\\PSoC5/core_cm3.h"
 771              		.file 8 "pages.h"
 772              		.file 9 "Generated_Source\\PSoC5/PWM.h"
 773              		.file 10 "c:\\program files (x86)\\cypress\\psoc creator\\4.4\\psoc creator\\import\\gnu\\arm\\5.4
 774              		.file 11 "ssd1306.h"
 775              		.file 12 "Generated_Source\\PSoC5/UART.h"