ARM GAS  C:\Users\z004e6he\AppData\Local\Temp\cclT3az5.s 			page 1


   1              		.syntax unified
   2              		.cpu cortex-m3
   3              		.fpu softvfp
   4              		.eabi_attribute 20, 1
   5              		.eabi_attribute 21, 1
   6              		.eabi_attribute 23, 3
   7              		.eabi_attribute 24, 1
   8              		.eabi_attribute 25, 1
   9              		.eabi_attribute 26, 1
  10              		.eabi_attribute 30, 1
  11              		.eabi_attribute 34, 1
  12              		.eabi_attribute 18, 4
  13              		.thumb
  14              		.syntax unified
  15              		.file	"sensors.c"
  16              		.text
  17              	.Ltext0:
  18              		.cfi_sections	.debug_frame
  19              		.section	.text.getHallEffectData,"ax",%progbits
  20              		.align	2
  21              		.global	getHallEffectData
  22              		.thumb
  23              		.thumb_func
  24              		.type	getHallEffectData, %function
  25              	getHallEffectData:
  26              	.LFB64:
  27              		.file 1 "sensors.c"
   1:sensors.c     **** /* ========================================
   2:sensors.c     ****  *
   3:sensors.c     ****  * Copyright YOUR COMPANY, THE YEAR
   4:sensors.c     ****  * All Rights Reserved
   5:sensors.c     ****  * UNPUBLISHED, LICENSED SOFTWARE.
   6:sensors.c     ****  *
   7:sensors.c     ****  * CONFIDENTIAL AND PROPRIETARY INFORMATION
   8:sensors.c     ****  * WHICH IS THE PROPERTY OF your company.
   9:sensors.c     ****  *
  10:sensors.c     ****  * ========================================
  11:sensors.c     **** */
  12:sensors.c     **** 
  13:sensors.c     **** #include "sensors.h"
  14:sensors.c     **** 
  15:sensors.c     **** //row 0 is Hall effect, col 0 is dashboard, display value as bar in col 1 und as val in col 2, use 
  16:sensors.c     **** //row 1 is Temperature, current Temp in row 0, graph of temp in row 1, 1 s average in row 2 and gra
  17:sensors.c     **** //row 2 is Ultrasound measurement
  18:sensors.c     **** //TODO: Display a message of what's shown when switching pages for 1 s, allows to get value in mean
  19:sensors.c     **** //TODO: OR have a key show a description message when pressed
  20:sensors.c     **** 
  21:sensors.c     **** void getSensorData(uint8 page){
  22:sensors.c     ****     switch(page){
  23:sensors.c     ****         case 0: //Dashboard
  24:sensors.c     ****         //Get data from all sensors, update ~ 1Hz
  25:sensors.c     ****         getHallEffectData(0, 0);
  26:sensors.c     ****         getTemperatureData();
  27:sensors.c     ****         getUltrasoundData();
  28:sensors.c     ****         break;
  29:sensors.c     ****         case 1: //Hall Effect as value
  30:sensors.c     ****         //Read Hall effect data from switch "01"
ARM GAS  C:\Users\z004e6he\AppData\Local\Temp\cclT3az5.s 			page 2


  31:sensors.c     ****         getHallEffectData(0, 1);
  32:sensors.c     ****         break;
  33:sensors.c     ****         case 2: //Hall Effect as bar
  34:sensors.c     ****         //Read Hall Effect data from switch "02"
  35:sensors.c     ****         getHallEffectData(0, 2);
  36:sensors.c     ****         break;
  37:sensors.c     ****         case 3: //Hall Effect as bar and servo output
  38:sensors.c     ****         //Read data from switch "03"
  39:sensors.c     ****         getHallEffectData(0, 3);
  40:sensors.c     ****         break;
  41:sensors.c     ****     }
  42:sensors.c     **** }
  43:sensors.c     **** 
  44:sensors.c     **** /* Get the value of how low the key to activate the screen is pressed */
  45:sensors.c     **** void getHallEffectData(uint8 row, uint8 col){
  28              		.loc 1 45 0
  29              		.cfi_startproc
  30              		@ args = 0, pretend = 0, frame = 0
  31              		@ frame_needed = 0, uses_anonymous_args = 0
  32              	.LVL0:
  33 0000 38B5     		push	{r3, r4, r5, lr}
  34              		.cfi_def_cfa_offset 16
  35              		.cfi_offset 3, -16
  36              		.cfi_offset 4, -12
  37              		.cfi_offset 5, -8
  38              		.cfi_offset 14, -4
  39 0002 0D46     		mov	r5, r1
  46:sensors.c     ****     //Set row and col appropriately
  47:sensors.c     ****     ADC_AMux_Select(row);
  40              		.loc 1 47 0
  41 0004 FFF7FEFF 		bl	ADC_AMux_Select
  42              	.LVL1:
  48:sensors.c     ****     (*pinWriteArr[col])(HIGH);
  43              		.loc 1 48 0
  44 0008 074C     		ldr	r4, .L3
  45 000a 54F82530 		ldr	r3, [r4, r5, lsl #2]
  46 000e 0120     		movs	r0, #1
  47 0010 9847     		blx	r3
  48              	.LVL2:
  49:sensors.c     ****     //TODO: Check if delay is needed
  50:sensors.c     ****     sensor.HallEffect = ADC_Read16() - CONVERSION_OFFSET;
  49              		.loc 1 50 0
  50 0012 FFF7FEFF 		bl	ADC_Read16
  51              	.LVL3:
  52 0016 3830     		adds	r0, r0, #56
  53 0018 044B     		ldr	r3, .L3+4
  54 001a 1870     		strb	r0, [r3]
  51:sensors.c     ****     (*pinWriteArr[col])(LOW);
  55              		.loc 1 51 0
  56 001c 54F82530 		ldr	r3, [r4, r5, lsl #2]
  57 0020 0020     		movs	r0, #0
  58 0022 9847     		blx	r3
  59              	.LVL4:
  60 0024 38BD     		pop	{r3, r4, r5, pc}
  61              	.L4:
  62 0026 00BF     		.align	2
  63              	.L3:
ARM GAS  C:\Users\z004e6he\AppData\Local\Temp\cclT3az5.s 			page 3


  64 0028 00000000 		.word	pinWriteArr
  65 002c 00000000 		.word	sensor
  66              		.cfi_endproc
  67              	.LFE64:
  68              		.size	getHallEffectData, .-getHallEffectData
  69              		.section	.text.getTemperatureData,"ax",%progbits
  70              		.align	2
  71              		.global	getTemperatureData
  72              		.thumb
  73              		.thumb_func
  74              		.type	getTemperatureData, %function
  75              	getTemperatureData:
  76              	.LFB65:
  52:sensors.c     **** }
  53:sensors.c     **** 
  54:sensors.c     **** /* Get the temperature sensor data */
  55:sensors.c     **** void getTemperatureData(void){
  77              		.loc 1 55 0
  78              		.cfi_startproc
  79              		@ args = 0, pretend = 0, frame = 0
  80              		@ frame_needed = 0, uses_anonymous_args = 0
  81 0000 08B5     		push	{r3, lr}
  82              		.cfi_def_cfa_offset 8
  83              		.cfi_offset 3, -8
  84              		.cfi_offset 14, -4
  56:sensors.c     ****     //Select the Multiplexer channel for the sensor
  57:sensors.c     ****     ADC_AMux_Select(TEMPERATURE_SENSOR_CHANNEL);
  85              		.loc 1 57 0
  86 0002 0420     		movs	r0, #4
  87 0004 FFF7FEFF 		bl	ADC_AMux_Select
  88              	.LVL5:
  58:sensors.c     ****     //TODO: Check if delay is needed
  59:sensors.c     ****     //Read the sensor temperature, convert value to mV
  60:sensors.c     ****     sensor.Temperature = ADC_CountsTo_mVolts(ADC_Read16());
  89              		.loc 1 60 0
  90 0008 FFF7FEFF 		bl	ADC_Read16
  91              	.LVL6:
  92 000c FFF7FEFF 		bl	ADC_CountsTo_mVolts
  93              	.LVL7:
  94 0010 014B     		ldr	r3, .L7
  95 0012 5880     		strh	r0, [r3, #2]	@ movhi
  96 0014 08BD     		pop	{r3, pc}
  97              	.L8:
  98 0016 00BF     		.align	2
  99              	.L7:
 100 0018 00000000 		.word	sensor
 101              		.cfi_endproc
 102              	.LFE65:
 103              		.size	getTemperatureData, .-getTemperatureData
 104              		.section	.text.getSensorData,"ax",%progbits
 105              		.align	2
 106              		.global	getSensorData
 107              		.thumb
 108              		.thumb_func
 109              		.type	getSensorData, %function
 110              	getSensorData:
 111              	.LFB63:
ARM GAS  C:\Users\z004e6he\AppData\Local\Temp\cclT3az5.s 			page 4


  21:sensors.c     ****     switch(page){
 112              		.loc 1 21 0
 113              		.cfi_startproc
 114              		@ args = 0, pretend = 0, frame = 0
 115              		@ frame_needed = 0, uses_anonymous_args = 0
 116              	.LVL8:
 117 0000 08B5     		push	{r3, lr}
 118              		.cfi_def_cfa_offset 8
 119              		.cfi_offset 3, -8
 120              		.cfi_offset 14, -4
  22:sensors.c     ****         case 0: //Dashboard
 121              		.loc 1 22 0
 122 0002 0328     		cmp	r0, #3
 123 0004 18D8     		bhi	.L9
 124 0006 DFE800F0 		tbb	[pc, r0]
 125              	.L12:
 126 000a 02       		.byte	(.L11-.L12)/2
 127 000b 09       		.byte	(.L13-.L12)/2
 128 000c 0E       		.byte	(.L14-.L12)/2
 129 000d 13       		.byte	(.L15-.L12)/2
 130              		.p2align 1
 131              	.L11:
  25:sensors.c     ****         getTemperatureData();
 132              		.loc 1 25 0
 133 000e 0021     		movs	r1, #0
 134 0010 0846     		mov	r0, r1
 135              	.LVL9:
 136 0012 FFF7FEFF 		bl	getHallEffectData
 137              	.LVL10:
  26:sensors.c     ****         getUltrasoundData();
 138              		.loc 1 26 0
 139 0016 FFF7FEFF 		bl	getTemperatureData
 140              	.LVL11:
  28:sensors.c     ****         case 1: //Hall Effect as value
 141              		.loc 1 28 0
 142 001a 08BD     		pop	{r3, pc}
 143              	.LVL12:
 144              	.L13:
  31:sensors.c     ****         break;
 145              		.loc 1 31 0
 146 001c 0121     		movs	r1, #1
 147 001e 0020     		movs	r0, #0
 148              	.LVL13:
 149 0020 FFF7FEFF 		bl	getHallEffectData
 150              	.LVL14:
  32:sensors.c     ****         case 2: //Hall Effect as bar
 151              		.loc 1 32 0
 152 0024 08BD     		pop	{r3, pc}
 153              	.LVL15:
 154              	.L14:
  35:sensors.c     ****         break;
 155              		.loc 1 35 0
 156 0026 0221     		movs	r1, #2
 157 0028 0020     		movs	r0, #0
 158              	.LVL16:
 159 002a FFF7FEFF 		bl	getHallEffectData
 160              	.LVL17:
ARM GAS  C:\Users\z004e6he\AppData\Local\Temp\cclT3az5.s 			page 5


  36:sensors.c     ****         case 3: //Hall Effect as bar and servo output
 161              		.loc 1 36 0
 162 002e 08BD     		pop	{r3, pc}
 163              	.LVL18:
 164              	.L15:
  39:sensors.c     ****         break;
 165              		.loc 1 39 0
 166 0030 0321     		movs	r1, #3
 167 0032 0020     		movs	r0, #0
 168              	.LVL19:
 169 0034 FFF7FEFF 		bl	getHallEffectData
 170              	.LVL20:
 171              	.L9:
 172 0038 08BD     		pop	{r3, pc}
 173              		.cfi_endproc
 174              	.LFE63:
 175              		.size	getSensorData, .-getSensorData
 176 003a 00BF     		.section	.text.getUltrasoundData,"ax",%progbits
 177              		.align	2
 178              		.global	getUltrasoundData
 179              		.thumb
 180              		.thumb_func
 181              		.type	getUltrasoundData, %function
 182              	getUltrasoundData:
 183              	.LFB66:
  61:sensors.c     **** }
  62:sensors.c     **** 
  63:sensors.c     **** /* Get the ultrasound sensor data */
  64:sensors.c     **** void getUltrasoundData(void){
 184              		.loc 1 64 0
 185              		.cfi_startproc
 186              		@ args = 0, pretend = 0, frame = 0
 187              		@ frame_needed = 0, uses_anonymous_args = 0
 188              		@ link register save eliminated.
 189 0000 7047     		bx	lr
 190              		.cfi_endproc
 191              	.LFE66:
 192              		.size	getUltrasoundData, .-getUltrasoundData
 193              		.comm	sensor,6,4
 194              		.comm	rapidTriggerDistance,2,2
 195              		.comm	pinWriteArr,16,4
 196              		.comm	Transmitbuffer,64,4
 197              		.comm	action,1,1
 198 0002 00BF     		.text
 199              	.Letext0:
 200              		.file 2 "c:\\program files (x86)\\cypress\\psoc creator\\4.4\\psoc creator\\import\\gnu\\arm\\5.4.
 201              		.file 3 "c:\\program files (x86)\\cypress\\psoc creator\\4.4\\psoc creator\\import\\gnu\\arm\\5.4.
 202              		.file 4 "Generated_Source\\PSoC5/cytypes.h"
 203              		.file 5 "sensors.h"
 204              		.file 6 "Generated_Source\\PSoC5/core_cm3.h"
 205              		.file 7 "HallEffect.h"
 206              		.file 8 "Generated_Source\\PSoC5/ADC_AMux.h"
 207              		.file 9 "Generated_Source\\PSoC5/ADC.h"